 bson

 Timestamp is 58846d72 (Sun Jan 22 16:29:38 2017)

 Preferred load address is 0000000180000000

 Start         Length     Name                   Class
 0001:00000000 00000037H .text$di                CODE
 0001:00000040 00018d63H .text$mn                CODE
 0001:00018db0 00000d86H .text$x                 CODE
 0001:00019b40 00000003H .text$yd                CODE
 0002:00000000 00000228H .idata$5                DATA
 0002:00000228 00000008H .CRT$XCA                DATA
 0002:00000230 00000020H .CRT$XCU                DATA
 0002:00000250 00000008H .CRT$XCZ                DATA
 0002:00000258 00000008H .CRT$XIA                DATA
 0002:00000260 00000020H .CRT$XIC                DATA
 0002:00000280 00000008H .CRT$XIZ                DATA
 0002:00000288 00000008H .CRT$XPA                DATA
 0002:00000290 00000010H .CRT$XPX                DATA
 0002:000002a0 00000008H .CRT$XPXA               DATA
 0002:000002a8 00000008H .CRT$XPZ                DATA
 0002:000002b0 00000008H .CRT$XTA                DATA
 0002:000002b8 00000008H .CRT$XTZ                DATA
 0002:000002c0 00008ae0H .rdata                  DATA
 0002:00008da0 000000b8H .rdata$debug            DATA
 0002:00008e58 000001ecH .rdata$r                DATA
 0002:00009048 00000008H .rtc$IAA                DATA
 0002:00009050 00000008H .rtc$IZZ                DATA
 0002:00009058 00000008H .rtc$TAA                DATA
 0002:00009060 00000008H .rtc$TZZ                DATA
 0002:00009070 00001878H .xdata                  DATA
 0002:0000a8e8 0000016cH .xdata$x                DATA
 0002:0000aa54 00000020H .didat$2                DATA
 0002:0000aa74 00000020H .didat$3                DATA
 0002:0000aa98 00000308H .didat$4                DATA
 0002:0000ada0 00001802H .didat$6                DATA
 0002:0000c5a8 00000308H .didat$7                DATA
 0002:0000c8b0 0000004cH .edata                  DATA
 0002:0000c8fc 00000014H .idata$2                DATA
 0002:0000c910 00000014H .idata$3                DATA
 0002:0000c928 00000228H .idata$4                DATA
 0002:0000cb50 00000500H .idata$6                DATA
 0003:00000000 00001898H .data                   DATA
 0003:00001898 000000c6H .data$r                 DATA
 0003:00001960 00000308H .didat$5                DATA
 0003:00001c80 000024a8H .bss                    DATA
 0004:00000000 00001050H .pdata                  DATA
 0005:00000000 00000058H .rsrc$01                DATA
 0005:00000060 00000180H .rsrc$02                DATA

  Address         Publics by Value              Rva+Base               Lib:Object

 0000:00000000       ___safe_se_handler_count   0000000000000000     <absolute>
 0000:00000000       __guard_fids_count         0000000000000000     <absolute>
 0000:00000000       __guard_fids_table         0000000000000000     <absolute>
 0000:00000000       ___safe_se_handler_table   0000000000000000     <absolute>
 0000:00000000       __guard_flags              0000000000000000     <absolute>
 0000:00000000       __ImageBase                0000000180000000     <linker-defined>
 0001:000000f0       ?New@?$Factory@VFunctionTemplate@v8@@@imp@Nan@@SA?AV?$Local@VFunctionTemplate@v8@@@v8@@P6AXAEBV?$FunctionCallbackInfo@VValue@v8@@@3@@ZV?$Local@VValue@v8@@@5@V?$Local@VSignature@v8@@@5@@Z 00000001800010f0 f i bson.obj
 0001:00000280       ??1HandleScope@Nan@@QEAA@XZ 0000000180001280 f i bson.obj
 0001:00000290       ??1?$Persistent@VObject@v8@@V?$NonCopyablePersistentTraits@VObject@v8@@@2@@Nan@@QEAA@XZ 0000000180001290 f i bson.obj
 0001:00000290       ??1?$Persistent@VFunction@v8@@V?$NonCopyablePersistentTraits@VFunction@v8@@@2@@Nan@@QEAA@XZ 0000000180001290 f i bson.obj
 0001:000002a0       ??1ObjectWrap@Nan@@UEAA@XZ 00000001800012a0 f i bson.obj
 0001:00000320       ?Wrap@ObjectWrap@Nan@@IEAAXV?$Local@VObject@v8@@@v8@@@Z 0000000180001320 f i bson.obj
 0001:00000400       ?Ref@ObjectWrap@Nan@@MEAAXXZ 0000000180001400 f i bson.obj
 0001:00000440       ?Unref@ObjectWrap@Nan@@MEAAXXZ 0000000180001440 f i bson.obj
 0001:000004f0       ?WeakCallback@ObjectWrap@Nan@@CAXAEBV?$WeakCallbackInfo@VObjectWrap@Nan@@@v8@@@Z 00000001800014f0 f i bson.obj
 0001:00000580       ??_GObjectWrap@Nan@@UEAAPEAXI@Z 0000000180001580 f i bson.obj
 0001:00000580       ??_EObjectWrap@Nan@@UEAAPEAXI@Z 0000000180001580 f i * CIL library *:* CIL module *
 0001:000005b0       ?WriteByte@DataStream@@QEAAXH@Z 00000001800015b0 f i bson.obj
 0001:00000600       ?WriteInt32@DataStream@@QEAAXH@Z 0000000180001600 f i bson.obj
 0001:00000650       ?WriteLengthPrefixedString@DataStream@@QEAAXAEBV?$Local@VString@v8@@@v8@@@Z 0000000180001650 f i bson.obj
 0001:00000730       ?WriteString@DataStream@@QEAAXAEBV?$Local@VString@v8@@@v8@@@Z 0000000180001730 f i bson.obj
 0001:000007a0       ?WriteData@DataStream@@QEAAXPEBD_K@Z 00000001800017a0 f i bson.obj
 0001:00000800       ?BeginWriteSize@DataStream@@QEAAPEAXXZ 0000000180001800 f i bson.obj
 0001:00000850       ?WriteObjectId@DataStream@@QEAAXAEBV?$Local@VObject@v8@@@v8@@AEBV?$Local@VString@v8@@@3@@Z 0000000180001850 f   bson.obj
 0001:00000980       ?ThrowAllocatedStringException@@YAX_KPEBDZZ 0000000180001980 f   bson.obj
 0001:00000a10       ?CheckKey@DataStream@@QEAAXAEBV?$Local@VString@v8@@@v8@@@Z 0000000180001a10 f   bson.obj
 0001:00000b20       ?ReadCString@BSONDeserializer@@QEAA?AV?$Local@VValue@v8@@@v8@@XZ 0000000180001b20 f   bson.obj
 0001:00000bf0       ?ReadString@BSONDeserializer@@QEAA?AV?$Local@VString@v8@@@v8@@XZ 0000000180001bf0 f   bson.obj
 0001:00000c80       ?ReadObjectId@BSONDeserializer@@QEAA?AV?$Local@VString@v8@@@v8@@XZ 0000000180001c80 f   bson.obj
 0001:00000d80       ?DeserializeDocument@BSONDeserializer@@QEAA?AV?$Local@VValue@v8@@@v8@@_N@Z 0000000180001d80 f   bson.obj
 0001:00000e20       ?DeserializeDocumentInternal@BSONDeserializer@@AEAA?AV?$Local@VValue@v8@@@v8@@_N@Z 0000000180001e20 f   bson.obj
 0001:00001270       ?DeserializeArray@BSONDeserializer@@AEAA?AV?$Local@VValue@v8@@@v8@@_N@Z 0000000180002270 f   bson.obj
 0001:00001310       ?DeserializeArrayInternal@BSONDeserializer@@AEAA?AV?$Local@VValue@v8@@@v8@@_N@Z 0000000180002310 f   bson.obj
 0001:00001410       ?DeserializeValue@BSONDeserializer@@AEAA?AV?$Local@VValue@v8@@@v8@@W4BsonType@@_N@Z 0000000180002410 f   bson.obj
 0001:00001cb0       ??_EBSON@@UEAAPEAXI@Z      0000000180002cb0 f i * CIL library *:* CIL module *
 0001:00001cb0       ??_GBSON@@UEAAPEAXI@Z      0000000180002cb0 f i bson.obj
 0001:00001ce0       ??1BSON@@UEAA@XZ           0000000180002ce0 f   bson.obj
 0001:00001e60       ?Initialize@BSON@@SAXV?$Local@VObject@v8@@@v8@@@Z 0000000180002e60 f   bson.obj
 0001:00002490       ?New@BSON@@CAXAEBV?$FunctionCallbackInfo@VValue@v8@@@Nan@@@Z 0000000180003490 f   bson.obj
 0001:000030a0       ?BSONDeserialize@BSON@@SAXAEBV?$FunctionCallbackInfo@VValue@v8@@@Nan@@@Z 00000001800040a0 f   bson.obj
 0001:00003820       ?GetSerializeObject@BSON@@AEAA?AV?$Local@VObject@v8@@@v8@@AEBV?$Local@VValue@v8@@@3@@Z 0000000180004820 f   bson.obj
 0001:00003a00       ?BSONSerialize@BSON@@SAXAEBV?$FunctionCallbackInfo@VValue@v8@@@Nan@@@Z 0000000180004a00 f   bson.obj
 0001:00004220       ?CalculateObjectSize@BSON@@SAXAEBV?$FunctionCallbackInfo@VValue@v8@@@Nan@@@Z 0000000180005220 f   bson.obj
 0001:00004550       ?SerializeWithBufferAndIndex@BSON@@SAXAEBV?$FunctionCallbackInfo@VValue@v8@@@Nan@@@Z 0000000180005550 f   bson.obj
 0001:00004bd0       ?BSONDeserializeStream@BSON@@SAXAEBV?$FunctionCallbackInfo@VValue@v8@@@Nan@@@Z 0000000180005bd0 f   bson.obj
 0001:00005590       ??$New@VInt32@v8@@H@Nan@@YA?AV?$Local@VInt32@v8@@@v8@@H@Z 0000000180006590 f i bson.obj
 0001:00005610       ??$New@VUint32@v8@@I@Nan@@YA?AV?$Local@VUint32@v8@@@v8@@I@Z 0000000180006610 f i bson.obj
 0001:00005690       ??$Unwrap@VBSON@@@ObjectWrap@Nan@@SAPEAVBSON@@V?$Local@VObject@v8@@@v8@@@Z 0000000180006690 f i bson.obj
 0001:00005710       ?SerializeDocument@?$BSONSerializer@VDataStream@@@@QEAAXAEBV?$Local@VValue@v8@@@v8@@@Z 0000000180006710 f i bson.obj
 0001:00005990       ?SerializeDocument@?$BSONSerializer@VCountStream@@@@QEAAXAEBV?$Local@VValue@v8@@@v8@@@Z 0000000180006990 f i bson.obj
 0001:00005b30       ?SerializeValue@?$BSONSerializer@VDataStream@@@@QEAAXPEAXV?$Local@VValue@v8@@@v8@@_N@Z 0000000180006b30 f i bson.obj
 0001:000072a0       ?SerializeValue@?$BSONSerializer@VCountStream@@@@QEAAXPEAXV?$Local@VValue@v8@@@v8@@_N@Z 00000001800082a0 f i bson.obj
 0001:00008470       ?SerializeArray@?$BSONSerializer@VDataStream@@@@QEAAXAEBV?$Local@VValue@v8@@@v8@@@Z 0000000180009470 f i bson.obj
 0001:00008600       ?SerializeArray@?$BSONSerializer@VCountStream@@@@QEAAXAEBV?$Local@VValue@v8@@@v8@@@Z 0000000180009600 f i bson.obj
 0001:0000876c       __imp_load_?DecodeBytes@node@@YA_JPEAVIsolate@v8@@V?$Local@VValue@v8@@@3@W4encoding@1@@Z 000000018000976c f   node:node.exe
 0001:00008778       __tailMerge_node_exe       0000000180009778 f i node:node.exe
 0001:000087f1       __imp_load_?Encode@node@@YA?AV?$Local@VValue@v8@@@v8@@PEAVIsolate@3@PEBD_KW4encoding@1@@Z 00000001800097f1 f   node:node.exe
 0001:000087fd       __imp_load_?Length@Buffer@node@@YA_KV?$Local@VObject@v8@@@v8@@@Z 00000001800097fd f   node:node.exe
 0001:00008809       __imp_load_?Data@Buffer@node@@YAPEADV?$Local@VObject@v8@@@v8@@@Z 0000000180009809 f   node:node.exe
 0001:00008815       __imp_load_?HasInstance@Buffer@node@@YA_NV?$Local@VValue@v8@@@v8@@@Z 0000000180009815 f   node:node.exe
 0001:00008821       __imp_load_?HasInstance@Buffer@node@@YA_NV?$Local@VObject@v8@@@v8@@@Z 0000000180009821 f   node:node.exe
 0001:0000882d       __imp_load_?Copy@Buffer@node@@YA?AV?$MaybeLocal@VObject@v8@@@v8@@PEAVIsolate@4@PEBD_K@Z 000000018000982d f   node:node.exe
 0001:00008839       __imp_load_?New@Buffer@node@@YA?AV?$MaybeLocal@VObject@v8@@@v8@@PEAVIsolate@4@_K@Z 0000000180009839 f   node:node.exe
 0001:00008845       __imp_load_?New@Buffer@node@@YA?AV?$MaybeLocal@VObject@v8@@@v8@@PEAVIsolate@4@PEAD_K@Z 0000000180009845 f   node:node.exe
 0001:00008851       __imp_load_node_module_register 0000000180009851 f   node:node.exe
 0001:0000885d       __imp_load_?DecodeWrite@node@@YA_JPEAVIsolate@v8@@PEAD_KV?$Local@VValue@v8@@@3@W4encoding@1@@Z 000000018000985d f   node:node.exe
 0001:00008869       __imp_load_?New@Signature@v8@@SA?AV?$Local@VSignature@v8@@@2@PEAVIsolate@2@V?$Local@VFunctionTemplate@v8@@@2@@Z 0000000180009869 f   node:node.exe
 0001:00008875       __imp_load_?New@Date@v8@@SA?AV?$MaybeLocal@VValue@v8@@@2@V?$Local@VContext@v8@@@2@N@Z 0000000180009875 f   node:node.exe
 0001:00008881       __imp_load_?ToLocalEmpty@V8@v8@@CAXXZ 0000000180009881 f   node:node.exe
 0001:0000888d       __imp_load_?FromJustIsNothing@V8@v8@@CAXXZ 000000018000988d f   node:node.exe
 0001:00008899       __imp_load_?ClearWeak@V8@v8@@CAPEAXPEAPEAVObject@internal@2@@Z 0000000180009899 f   node:node.exe
 0001:000088a5       __imp_load_?MakeWeak@V8@v8@@CAXPEAPEAVObject@internal@2@PEAXP6AXAEBV?$WeakCallbackInfo@X@2@@ZW4WeakCallbackType@2@@Z 00000001800098a5 f   node:node.exe
 0001:000088b1       __imp_load_?DisposeGlobal@V8@v8@@CAXPEAPEAVObject@internal@2@@Z 00000001800098b1 f   node:node.exe
 0001:000088bd       __imp_load_?GlobalizeReference@V8@v8@@CAPEAPEAVObject@internal@2@PEAVIsolate@42@PEAPEAV342@@Z 00000001800098bd f   node:node.exe
 0001:000088c9       __imp_load_?Escape@EscapableHandleScope@v8@@AEAAPEAPEAVObject@internal@2@PEAPEAV342@@Z 00000001800098c9 f   node:node.exe
 0001:000088d5       __imp_load_??0EscapableHandleScope@v8@@QEAA@PEAVIsolate@1@@Z 00000001800098d5 f   node:node.exe
 0001:000088e1       __imp_load_?StrictEquals@Value@v8@@QEBA_NV?$Local@VValue@v8@@@2@@Z 00000001800098e1 f   node:node.exe
 0001:000088ed       __imp_load_?Int32Value@Value@v8@@QEBAHXZ 00000001800098ed f   node:node.exe
 0001:000088f9       __imp_load_?Uint32Value@Value@v8@@QEBAIXZ 00000001800098f9 f   node:node.exe
 0001:00008905       __imp_load_?IntegerValue@Value@v8@@QEBA_JXZ 0000000180009905 f   node:node.exe
 0001:00008911       __imp_load_?NumberValue@Value@v8@@QEBANXZ 0000000180009911 f   node:node.exe
 0001:0000891d       __imp_load_?BooleanValue@Value@v8@@QEBA_NXZ 000000018000991d f   node:node.exe
 0001:00008929       __imp_load_?ToInt32@Value@v8@@QEBA?AV?$MaybeLocal@VInt32@v8@@@2@V?$Local@VContext@v8@@@2@@Z 0000000180009929 f   node:node.exe
 0001:00008935       __imp_load_?ToUint32@Value@v8@@QEBA?AV?$MaybeLocal@VUint32@v8@@@2@V?$Local@VContext@v8@@@2@@Z 0000000180009935 f   node:node.exe
 0001:00008941       __imp_load_?ToInteger@Value@v8@@QEBA?AV?$MaybeLocal@VInteger@v8@@@2@V?$Local@VContext@v8@@@2@@Z 0000000180009941 f   node:node.exe
 0001:0000894d       __imp_load_?IsRegExp@Value@v8@@QEBA_NXZ 000000018000994d f   node:node.exe
 0001:00008959       __imp_load_?IsDate@Value@v8@@QEBA_NXZ 0000000180009959 f   node:node.exe
 0001:00008965       __imp_load_?IsUint32@Value@v8@@QEBA_NXZ 0000000180009965 f   node:node.exe
 0001:00008971       __imp_load_?IsNumber@Value@v8@@QEBA_NXZ 0000000180009971 f   node:node.exe
 0001:0000897d       __imp_load_?IsBoolean@Value@v8@@QEBA_NXZ 000000018000997d f   node:node.exe
 0001:00008989       __imp_load_?IsObject@Value@v8@@QEBA_NXZ 0000000180009989 f   node:node.exe
 0001:00008995       __imp_load_?IsArray@Value@v8@@QEBA_NXZ 0000000180009995 f   node:node.exe
 0001:000089a1       __imp_load_?IsFunction@Value@v8@@QEBA_NXZ 00000001800099a1 f   node:node.exe
 0001:000089ad       __imp_load_?SetClassName@FunctionTemplate@v8@@QEAAXV?$Local@VString@v8@@@2@@Z 00000001800099ad f   node:node.exe
 0001:000089b9       __imp_load_?PrototypeTemplate@FunctionTemplate@v8@@QEAA?AV?$Local@VObjectTemplate@v8@@@2@XZ 00000001800099b9 f   node:node.exe
 0001:000089c5       __imp_load_?InstanceTemplate@FunctionTemplate@v8@@QEAA?AV?$Local@VObjectTemplate@v8@@@2@XZ 00000001800099c5 f   node:node.exe
 0001:000089d1       __imp_load_?GetFunction@FunctionTemplate@v8@@QEAA?AV?$Local@VFunction@v8@@@2@XZ 00000001800099d1 f   node:node.exe
 0001:000089dd       __imp_load_?GetFunction@FunctionTemplate@v8@@QEAA?AV?$MaybeLocal@VFunction@v8@@@2@V?$Local@VContext@v8@@@2@@Z 00000001800099dd f   node:node.exe
 0001:000089e9       __imp_load_?New@FunctionTemplate@v8@@SA?AV?$Local@VFunctionTemplate@v8@@@2@PEAVIsolate@2@P6AXAEBV?$FunctionCallbackInfo@VValue@v8@@@2@@ZV?$Local@VValue@v8@@@2@V?$Local@VSignature@v8@@@2@H@Z 00000001800099e9 f   node:node.exe
 0001:000089f5       __imp_load_?Error@Exception@v8@@SA?AV?$Local@VValue@v8@@@2@V?$Local@VString@v8@@@2@@Z 00000001800099f5 f   node:node.exe
 0001:00008a01       __imp_load_?TypeError@Exception@v8@@SA?AV?$Local@VValue@v8@@@2@V?$Local@VString@v8@@@2@@Z 0000000180009a01 f   node:node.exe
 0001:00008a0d       __imp_load_?NewFromTwoByte@String@v8@@SA?AV?$MaybeLocal@VString@v8@@@2@PEAVIsolate@2@PEBGW4NewStringType@2@H@Z 0000000180009a0d f   node:node.exe
 0001:00008a19       __imp_load_?NewFromUtf8@String@v8@@SA?AV?$MaybeLocal@VString@v8@@@2@PEAVIsolate@2@PEBDW4NewStringType@2@H@Z 0000000180009a19 f   node:node.exe
 0001:00008a25       __imp_load_?WriteUtf8@String@v8@@QEBAHPEADHPEAHH@Z 0000000180009a25 f   node:node.exe
 0001:00008a31       __imp_load_?Write@String@v8@@QEBAHPEAGHHH@Z 0000000180009a31 f   node:node.exe
 0001:00008a3d       __imp_load_?Utf8Length@String@v8@@QEBAHXZ 0000000180009a3d f   node:node.exe
 0001:00008a49       __imp_load_?New@Array@v8@@SA?AV?$Local@VArray@v8@@@2@PEAVIsolate@2@H@Z 0000000180009a49 f   node:node.exe
 0001:00008a55       __imp_load_?Length@Array@v8@@QEBAIXZ 0000000180009a55 f   node:node.exe
 0001:00008a61       __imp_load_?CreateHandle@HandleScope@v8@@KAPEAPEAVObject@internal@2@PEAVIsolate@42@PEAV342@@Z 0000000180009a61 f   node:node.exe
 0001:00008a6d       __imp_load_?CreateHandle@HandleScope@v8@@CAPEAPEAVObject@internal@2@PEAVHeapObject@42@PEAV342@@Z 0000000180009a6d f   node:node.exe
 0001:00008a79       __imp_load_??1HandleScope@v8@@QEAA@XZ 0000000180009a79 f   node:node.exe
 0001:00008a85       __imp_load_??0HandleScope@v8@@QEAA@PEAVIsolate@1@@Z 0000000180009a85 f   node:node.exe
 0001:00008a91       __imp_load_?New@Number@v8@@SA?AV?$Local@VNumber@v8@@@2@PEAVIsolate@2@N@Z 0000000180009a91 f   node:node.exe
 0001:00008a9d       __imp_load_?Value@Boolean@v8@@QEBA_NXZ 0000000180009a9d f   node:node.exe
 0001:00008aa9       __imp_load_?SlowGetAlignedPointerFromInternalField@Object@v8@@AEAAPEAXH@Z 0000000180009aa9 f   node:node.exe
 0001:00008ab5       __imp_load_?SlowGetInternalField@Object@v8@@AEAA?AV?$Local@VValue@v8@@@2@H@Z 0000000180009ab5 f   node:node.exe
 0001:00008ac1       __imp_load_?New@Object@v8@@SA?AV?$Local@VObject@v8@@@2@PEAVIsolate@2@@Z 0000000180009ac1 f   node:node.exe
 0001:00008acd       __imp_load_?SetAlignedPointerInInternalField@Object@v8@@QEAAXHPEAX@Z 0000000180009acd f   node:node.exe
 0001:00008ad9       __imp_load_?SetInternalField@Object@v8@@QEAAXHV?$Local@VValue@v8@@@2@@Z 0000000180009ad9 f   node:node.exe
 0001:00008ae5       __imp_load_?InternalFieldCount@Object@v8@@QEAAHXZ 0000000180009ae5 f   node:node.exe
 0001:00008af1       __imp_load_?GetOwnPropertyNames@Object@v8@@QEAA?AV?$Local@VArray@v8@@@2@XZ 0000000180009af1 f   node:node.exe
 0001:00008afd       __imp_load_?GetPropertyNames@Object@v8@@QEAA?AV?$Local@VArray@v8@@@2@XZ 0000000180009afd f   node:node.exe
 0001:00008b09       __imp_load_?Has@Object@v8@@QEAA?AV?$Maybe@_N@2@V?$Local@VContext@v8@@@2@V?$Local@VValue@v8@@@2@@Z 0000000180009b09 f   node:node.exe
 0001:00008b15       __imp_load_?Get@Object@v8@@QEAA?AV?$Local@VValue@v8@@@2@V32@@Z 0000000180009b15 f   node:node.exe
 0001:00008b21       __imp_load_?Get@Object@v8@@QEAA?AV?$MaybeLocal@VValue@v8@@@2@V?$Local@VContext@v8@@@2@V?$Local@VValue@v8@@@2@@Z 0000000180009b21 f   node:node.exe
 0001:00008b2d       __imp_load_?Get@Object@v8@@QEAA?AV?$MaybeLocal@VValue@v8@@@2@V?$Local@VContext@v8@@@2@I@Z 0000000180009b2d f   node:node.exe
 0001:00008b39       __imp_load_?ForceSet@Object@v8@@QEAA_NV?$Local@VValue@v8@@@2@0W4PropertyAttribute@2@@Z 0000000180009b39 f   node:node.exe
 0001:00008b45       __imp_load_?Set@Object@v8@@QEAA_NIV?$Local@VValue@v8@@@2@@Z 0000000180009b45 f   node:node.exe
 0001:00008b51       __imp_load_?Set@Template@v8@@QEAAXV?$Local@VName@v8@@@2@V?$Local@VData@v8@@@2@W4PropertyAttribute@2@@Z 0000000180009b51 f   node:node.exe
 0001:00008b5d       __imp_load_?SetInternalFieldCount@ObjectTemplate@v8@@QEAAXH@Z 0000000180009b5d f   node:node.exe
 0001:00008b69       __imp_load_?NewInstance@ObjectTemplate@v8@@QEAA?AV?$MaybeLocal@VObject@v8@@@2@V?$Local@VContext@v8@@@2@@Z 0000000180009b69 f   node:node.exe
 0001:00008b75       __imp_load_?New@ObjectTemplate@v8@@SA?AV?$Local@VObjectTemplate@v8@@@2@PEAVIsolate@2@V?$Local@VFunctionTemplate@v8@@@2@@Z 0000000180009b75 f   node:node.exe
 0001:00008b81       __imp_load_?NewFromUnsigned@Integer@v8@@SA?AV?$Local@VInteger@v8@@@2@PEAVIsolate@2@I@Z 0000000180009b81 f   node:node.exe
 0001:00008b8d       __imp_load_?New@Integer@v8@@SA?AV?$Local@VInteger@v8@@@2@PEAVIsolate@2@H@Z 0000000180009b8d f   node:node.exe
 0001:00008b99       __imp_load_?GetName@Function@v8@@QEBA?AV?$Local@VValue@v8@@@2@XZ 0000000180009b99 f   node:node.exe
 0001:00008ba5       __imp_load_?SetName@Function@v8@@QEAAXV?$Local@VString@v8@@@2@@Z 0000000180009ba5 f   node:node.exe
 0001:00008bb1       __imp_load_?Call@Function@v8@@QEAA?AV?$Local@VValue@v8@@@2@V32@HQEAV32@@Z 0000000180009bb1 f   node:node.exe
 0001:00008bbd       __imp_load_?NewInstance@Function@v8@@QEBA?AV?$Local@VObject@v8@@@2@HQEAV?$Local@VValue@v8@@@2@@Z 0000000180009bbd f   node:node.exe
 0001:00008bc9       __imp_load_?NewInstance@Function@v8@@QEBA?AV?$Local@VObject@v8@@@2@XZ 0000000180009bc9 f   node:node.exe
 0001:00008bd5       __imp_load_?ThrowException@Isolate@v8@@QEAA?AV?$Local@VValue@v8@@@2@V32@@Z 0000000180009bd5 f   node:node.exe
 0001:00008be1       __imp_load_?GetCurrentContext@Isolate@v8@@QEAA?AV?$Local@VContext@v8@@@2@XZ 0000000180009be1 f   node:node.exe
 0001:00008bed       __imp_load_?GetCurrent@Isolate@v8@@SAPEAV12@XZ 0000000180009bed f   node:node.exe
 0001:00008bf9       __imp_load_?GetFlags@RegExp@v8@@QEBA?AW4Flags@12@XZ 0000000180009bf9 f   node:node.exe
 0001:00008c05       __imp_load_?GetSource@RegExp@v8@@QEBA?AV?$Local@VString@v8@@@2@XZ 0000000180009c05 f   node:node.exe
 0001:00008c11       __imp_load_?New@RegExp@v8@@SA?AV?$MaybeLocal@VRegExp@v8@@@2@V?$Local@VContext@v8@@@2@V?$Local@VString@v8@@@2@W4Flags@12@@Z 0000000180009c11 f   node:node.exe
 0001:00008c1d       __imp_load_?Value@External@v8@@QEBAPEAXXZ 0000000180009c1d f   node:node.exe
 0001:00008c29       __imp_load_?New@External@v8@@SA?AV?$Local@VExternal@v8@@@2@PEAVIsolate@2@PEAX@Z 0000000180009c29 f   node:node.exe
 0001:00008c35       __imp_load_?ToObject@Value@v8@@QEBA?AV?$Local@VObject@v8@@@2@XZ 0000000180009c35 f   node:node.exe
 0001:00008c41       __imp_load_?ToString@Value@v8@@QEBA?AV?$Local@VString@v8@@@2@XZ 0000000180009c41 f   node:node.exe
 0001:00008c4d       __imp_load_?ToBoolean@Value@v8@@QEBA?AV?$Local@VBoolean@v8@@@2@XZ 0000000180009c4d f   node:node.exe
 0001:00008c59       __imp_load_??1EscapableHandleScope@v8@@QEAA@XZ 0000000180009c59 f   node:node.exe
 0001:00008c68       ??0bad_alloc@std@@QEAA@AEBV01@@Z 0000000180009c68 f i libcpmt:xthrow.obj
 0001:00008c8c       ??1bad_alloc@std@@UEAA@XZ  0000000180009c8c f i libcpmt:xthrow.obj
 0001:00008c9c       ??_Gbad_alloc@std@@UEAAPEAXI@Z 0000000180009c9c f i libcpmt:xthrow.obj
 0001:00008c9c       ??_Ebad_alloc@std@@UEAAPEAXI@Z 0000000180009c9c f i libcpmt:xthrow.obj
 0001:00008cf0       __security_check_cookie    0000000180009cf0 f   LIBCMT:amdsecgs.obj
 0001:00008d10       sprintf                    0000000180009d10 f   LIBCMT:sprintf.obj
 0001:00008db0       perror                     0000000180009db0 f   LIBCMT:perror.obj
 0001:00008e60       _vsprintf_l                0000000180009e60 f   LIBCMT:vsprintf.obj
 0001:00008f18       vsprintf                   0000000180009f18 f   LIBCMT:vsprintf.obj
 0001:00008f40       memmove                    0000000180009f40 f   LIBCMT:memcpy.obj
 0001:00008f40       memcpy                     0000000180009f40 f   LIBCMT:memcpy.obj
 0001:000094a8       free                       000000018000a4a8 f   LIBCMT:free.obj
 0001:000094e8       malloc                     000000018000a4e8 f   LIBCMT:malloc.obj
 0001:000095a0       strchr                     000000018000a5a0 f   LIBCMT:strchr.obj
 0001:0000962c       __doserrno                 000000018000a62c f   LIBCMT:dosmap.obj
 0001:0000964c       _dosmaperr                 000000018000a64c f   LIBCMT:dosmap.obj
 0001:0000969c       _errno                     000000018000a69c f   LIBCMT:dosmap.obj
 0001:000096bc       _get_errno_from_oserr      000000018000a6bc f   LIBCMT:dosmap.obj
 0001:0000970c       _wassert                   000000018000a70c f   LIBCMT:wassert.obj
 0001:0000a070       __onexitinit               000000018000b070 f   LIBCMT:onexit.obj
 0001:0000a0b4       _onexit                    000000018000b0b4 f   LIBCMT:onexit.obj
 0001:0000a1c0       atexit                     000000018000b1c0 f   LIBCMT:onexit.obj
 0001:0000a1d8       _get_printf_count_output   000000018000b1d8 f   LIBCMT:printf.obj
 0001:0000a1f0       printf                     000000018000b1f0 f   LIBCMT:printf.obj
 0001:0000a29c       ??3@YAXPEAX@Z              000000018000b29c f   LIBCMT:delete.obj
 0001:0000a2a4       ??8type_info@@QEBA_NAEBV0@@Z 000000018000b2a4 f   LIBCMT:typinfo.obj
 0001:0000a2c4       ??_Etype_info@@UEAAPEAXI@Z 000000018000b2c4 f i LIBCMT:typinfo.obj
 0001:0000a2c4       ??_Gtype_info@@UEAAPEAXI@Z 000000018000b2c4 f i LIBCMT:typinfo.obj
 0001:0000a300       __crtCorExitProcess        000000018000b300 f   LIBCMT:crt0dat.obj
 0001:0000a344       __crtExitProcess           000000018000b344 f   LIBCMT:crt0dat.obj
 0001:0000a35c       __freeCrtMemory            000000018000b35c f   LIBCMT:crt0dat.obj
 0001:0000a4a4       _amsg_exit                 000000018000b4a4 f   LIBCMT:crt0dat.obj
 0001:0000a4cc       _cexit                     000000018000b4cc f   LIBCMT:crt0dat.obj
 0001:0000a4dc       _cinit                     000000018000b4dc f   LIBCMT:crt0dat.obj
 0001:0000a574       _exit                      000000018000b574 f   LIBCMT:crt0dat.obj
 0001:0000a580       _init_pointers             000000018000b580 f   LIBCMT:crt0dat.obj
 0001:0000a62c       _initterm_e                000000018000b62c f   LIBCMT:crt0dat.obj
 0001:0000a668       _lockexit                  000000018000b668 f   LIBCMT:crt0dat.obj
 0001:0000a674       _unlockexit                000000018000b674 f   LIBCMT:crt0dat.obj
 0001:0000a818       exit                       000000018000b818 f   LIBCMT:crt0dat.obj
 0001:0000a824       ??2@YAPEAX_K@Z             000000018000b824 f   LIBCMT:new.obj
 0001:0000a890       ??0_LocaleUpdate@@QEAA@PEAUlocaleinfo_struct@@@Z 000000018000b890 f i LIBCMT:stricmp.obj
 0001:0000a938       __ascii_stricmp            000000018000b938 f   LIBCMT:stricmp.obj
 0001:0000a974       _stricmp                   000000018000b974 f   LIBCMT:stricmp.obj
 0001:0000a9bc       _stricmp_l                 000000018000b9bc f   LIBCMT:stricmp.obj
 0001:0000aa70       _CRT_INIT                  000000018000ba70 f   LIBCMT:dllcrt0.obj
 0001:0000abd0       _DllMainCRTStartup         000000018000bbd0 f   LIBCMT:dllcrt0.obj
 0001:0000ad40       strlen                     000000018000bd40 f   LIBCMT:strlen.obj
 0001:0000ade8       _CxxThrowException         000000018000bde8 f   LIBCMT:throw.obj
 0001:0000aeb0       ?_GetEstablisherFrame@@YAPEA_KPEA_KPEAU_xDISPATCHER_CONTEXT@@PEBU_s_FuncInfo@@0@Z 000000018000beb0 f   LIBCMT:trnsctrl.obj
 0001:0000af7c       ?_GetRangeOfTrysToCheck@@YAPEBU_s_TryBlockMapEntry@@PEA_KPEBU_s_FuncInfo@@HHPEAI2PEAU_xDISPATCHER_CONTEXT@@@Z 000000018000bf7c f   LIBCMT:trnsctrl.obj
 0001:0000b0a8       ?__FrameUnwindToEmptyState@@YAXPEA_KPEAU_xDISPATCHER_CONTEXT@@PEBU_s_FuncInfo@@@Z 000000018000c0a8 f   LIBCMT:trnsctrl.obj
 0001:0000b13c       ?__SehTransFilter@@YAHPEAU_EXCEPTION_POINTERS@@PEAUEHExceptionRecord@@PEA_KPEAU_CONTEXT@@PEAU_xDISPATCHER_CONTEXT@@PEBU_s_FuncInfo@@PEAH@Z 000000018000c13c f   LIBCMT:trnsctrl.obj
 0001:0000b1e0       _CallSETranslator          000000018000c1e0 f   LIBCMT:trnsctrl.obj
 0001:0000b234       _CreateFrameInfo           000000018000c234 f   LIBCMT:trnsctrl.obj
 0001:0000b278       _FindAndUnlinkFrame        000000018000c278 f   LIBCMT:trnsctrl.obj
 0001:0000b2d8       _GetImageBase              000000018000c2d8 f   LIBCMT:trnsctrl.obj
 0001:0000b2f0       _GetThrowImageBase         000000018000c2f0 f   LIBCMT:trnsctrl.obj
 0001:0000b308       _IsExceptionObjectToBeDestroyed 000000018000c308 f   LIBCMT:trnsctrl.obj
 0001:0000b33c       _SetImageBase              000000018000c33c f   LIBCMT:trnsctrl.obj
 0001:0000b358       _SetThrowImageBase         000000018000c358 f   LIBCMT:trnsctrl.obj
 0001:0000b374       _UnwindNestedFrames        000000018000c374 f   LIBCMT:trnsctrl.obj
 0001:0000b498       __CxxFrameHandler3         000000018000c498 f   LIBCMT:trnsctrl.obj
 0001:0000b520       _fpmath                    000000018000c520 f   LIBCMT:fpinit.obj
 0001:0000b528       _cfltcvt_init              000000018000c528 f   LIBCMT:fpinit.obj
 0001:0000b5b0       ??0exception@std@@QEAA@AEBQEBD@Z 000000018000c5b0 f   LIBCMT:stdexcpt.obj
 0001:0000b5e0       ??0exception@std@@QEAA@AEBQEBDH@Z 000000018000c5e0 f   LIBCMT:stdexcpt.obj
 0001:0000b5fc       ??0exception@std@@QEAA@AEBV01@@Z 000000018000c5fc f   LIBCMT:stdexcpt.obj
 0001:0000b628       ??1exception@std@@UEAA@XZ  000000018000c628 f   LIBCMT:stdexcpt.obj
 0001:0000b638       ??4exception@std@@QEAAAEAV01@AEBV01@@Z 000000018000c638 f   LIBCMT:stdexcpt.obj
 0001:0000b67c       ??_Gexception@std@@UEAAPEAXI@Z 000000018000c67c f i LIBCMT:stdexcpt.obj
 0001:0000b67c       ??_Eexception@std@@UEAAPEAXI@Z 000000018000c67c f i LIBCMT:stdexcpt.obj
 0001:0000b6b8       ?_Copy_str@exception@std@@AEAAXPEBD@Z 000000018000c6b8 f   LIBCMT:stdexcpt.obj
 0001:0000b714       ?_Tidy@exception@std@@AEAAXXZ 000000018000c714 f   LIBCMT:stdexcpt.obj
 0001:0000b73c       ?what@exception@std@@UEBAPEBDXZ 000000018000c73c f   LIBCMT:stdexcpt.obj
 0001:0000b750       __raise_securityfailure    000000018000c750 f   LIBCMT:gs_report.obj
 0001:0000b79c       __report_gsfailure         000000018000c79c f   LIBCMT:gs_report.obj
 0001:0000b870       _call_reportfault          000000018000c870 f   LIBCMT:invarg.obj
 0001:0000b964       _initp_misc_invarg         000000018000c964 f   LIBCMT:invarg.obj
 0001:0000b96c       _invalid_parameter         000000018000c96c f   LIBCMT:invarg.obj
 0001:0000b9d4       _invalid_parameter_noinfo  000000018000c9d4 f   LIBCMT:invarg.obj
 0001:0000b9f4       _invoke_watson             000000018000c9f4 f   LIBCMT:invarg.obj
 0001:0000ba30       _flsbuf                    000000018000ca30 f   LIBCMT:_flsbuf.obj
 0001:0000bbbc       _output_l                  000000018000cbbc f   LIBCMT:output.obj
 0001:0000c710       memset                     000000018000d710 f   LIBCMT:memset.obj
 0001:0000c93c       __sys_errlist              000000018000d93c f   LIBCMT:syserr.obj
 0001:0000c944       __sys_nerr                 000000018000d944 f   LIBCMT:syserr.obj
 0001:0000c94c       __lock_fhandle             000000018000d94c f   LIBCMT:osfinfo.obj
 0001:0000c9e4       _free_osfhnd               000000018000d9e4 f   LIBCMT:osfinfo.obj
 0001:0000ca90       _get_osfhandle             000000018000da90 f   LIBCMT:osfinfo.obj
 0001:0000cb04       _unlock_fhandle            000000018000db04 f   LIBCMT:osfinfo.obj
 0001:0000cb30       _write                     000000018000db30 f   LIBCMT:write.obj
 0001:0000cc14       _write_nolock              000000018000dc14 f   LIBCMT:write.obj
 0001:0000d408       __C_specific_handler       000000018000e408 f   LIBCMT:chandler.obj
 0001:0000d5ec       __isa_available_init       000000018000e5ec f   LIBCMT:cpu_disp.obj
 0001:0000d790       _heap_init                 000000018000e790 f   LIBCMT:heapinit.obj
 0001:0000d7b0       _heap_term                 000000018000e7b0 f   LIBCMT:heapinit.obj
 0001:0000d7bc       _callnewh                  000000018000e7bc f   LIBCMT:handler.obj
 0001:0000d7f0       _initp_heap_handler        000000018000e7f0 f   LIBCMT:handler.obj
 0001:0000d7f8       _FF_MSGBANNER              000000018000e7f8 f   LIBCMT:crt0msg.obj
 0001:0000d83c       _GET_RTERRMSG              000000018000e83c f   LIBCMT:crt0msg.obj
 0001:0000d86c       _NMSG_WRITE                000000018000e86c f   LIBCMT:crt0msg.obj
 0001:0000dadc       _freefls                   000000018000eadc f   LIBCMT:tidtable.obj
 0001:0000dc10       _freeptd                   000000018000ec10 f   LIBCMT:tidtable.obj
 0001:0000dc4c       _getptd                    000000018000ec4c f   LIBCMT:tidtable.obj
 0001:0000dc70       _getptd_noexit             000000018000ec70 f   LIBCMT:tidtable.obj
 0001:0000dcf4       _initptd                   000000018000ecf4 f   LIBCMT:tidtable.obj
 0001:0000ddb8       _mtinit                    000000018000edb8 f   LIBCMT:tidtable.obj
 0001:0000de38       _mtterm                    000000018000ee38 f   LIBCMT:tidtable.obj
 0001:0000de5c       memcpy_s                   000000018000ee5c f   LIBCMT:memcpy_s.obj
 0001:0000dee4       wcscat_s                   000000018000eee4 f   LIBCMT:wcscat_s.obj
 0001:0000df6c       wcscpy_s                   000000018000ef6c f   LIBCMT:wcscpy_s.obj
 0001:0000dfd8       wcslen                     000000018000efd8 f   LIBCMT:wcslen.obj
 0001:0000dff4       wcsncat_s                  000000018000eff4 f   LIBCMT:wcsncat_s.obj
 0001:0000e0dc       abort                      000000018000f0dc f   LIBCMT:abort.obj
 0001:0000e134       _set_error_mode            000000018000f134 f   LIBCMT:errmode.obj
 0001:0000e174       _itow_s                    000000018000f174 f   LIBCMT:xtows.obj
 0001:0000e2ac       __initstdio                000000018000f2ac f   LIBCMT:_file.obj
 0001:0000e344       __endstdio                 000000018000f344 f   LIBCMT:_file.obj
 0001:0000e374       __iob_func                 000000018000f374 f   LIBCMT:_file.obj
 0001:0000e37c       _lock_file                 000000018000f37c f   LIBCMT:_file.obj
 0001:0000e3e4       _lock_file2                000000018000f3e4 f   LIBCMT:_file.obj
 0001:0000e418       _unlock_file               000000018000f418 f   LIBCMT:_file.obj
 0001:0000e468       _unlock_file2              000000018000f468 f   LIBCMT:_file.obj
 0001:0000e488       _fflush_nolock             000000018000f488 f   LIBCMT:fflush.obj
 0001:0000e4d4       _flush                     000000018000f4d4 f   LIBCMT:fflush.obj
 0001:0000e550       _flushall                  000000018000f550 f   LIBCMT:fflush.obj
 0001:0000e55c       fflush                     000000018000f55c f   LIBCMT:fflush.obj
 0001:0000e688       setvbuf                    000000018000f688 f   LIBCMT:setvbuf.obj
 0001:0000e7a0       fwprintf                   000000018000f7a0 f   LIBCMT:fwprintf.obj
 0001:0000e834       _vswprintf_c_l             000000018000f834 f   LIBCMT:vswprnc.obj
 0001:0000e86c       _vswprintf_helper          000000018000f86c f   LIBCMT:vswprnc.obj
 0001:0000e988       __get_sigabrt              000000018000f988 f   LIBCMT:winsig.obj
 0001:0000e998       _initp_misc_winsig         000000018000f998 f   LIBCMT:winsig.obj
 0001:0000e9b8       raise                      000000018000f9b8 f   LIBCMT:winsig.obj
 0001:0000ebec       __crtMessageBoxW           000000018000fbec f   LIBCMT:crtmboxw.obj
 0001:0000ee60       __GSHandlerCheck           000000018000fe60 f   LIBCMT:gshandler.obj
 0001:0000ee80       __GSHandlerCheckCommon     000000018000fe80 f   LIBCMT:gshandler.obj
 0001:0000eee4       _msize                     000000018000fee4 f   LIBCMT:msize.obj
 0001:0000ef20       _calloc_crt                000000018000ff20 f   LIBCMT:crtheap.obj
 0001:0000efa0       _malloc_crt                000000018000ffa0 f   LIBCMT:crtheap.obj
 0001:0000f01c       _realloc_crt               000000018001001c f   LIBCMT:crtheap.obj
 0001:0000f0a0       _ftbuf                     00000001800100a0 f   LIBCMT:_sftbuf.obj
 0001:0000f0d8       _stbuf                     00000001800100d8 f   LIBCMT:_sftbuf.obj
 0001:0000f1a8       _initp_misc_purevirt       00000001800101a8 f   LIBCMT:inithelp.obj
 0001:0000f1c0       strcmp                     00000001800101c0 f   LIBCMT:strcmp.obj
 0001:0000f228       ?_Type_info_dtor@type_info@@CAXPEAV1@@Z 0000000180010228 f   LIBCMT:typname.obj
 0001:0000f294       _RTC_Initialize            0000000180010294 f   LIBCMT:initsect.obj
 0001:0000f2cc       _RTC_Terminate             00000001800102cc f   LIBCMT:initsect.obj
 0001:0000f304       _lock                      0000000180010304 f   LIBCMT:mlock.obj
 0001:0000f348       _mtdeletelocks             0000000180010348 f   LIBCMT:mlock.obj
 0001:0000f3d0       _mtinitlocknum             00000001800103d0 f   LIBCMT:mlock.obj
 0001:0000f490       _mtinitlocks               0000000180010490 f   LIBCMT:mlock.obj
 0001:0000f4f4       _unlock                    00000001800104f4 f   LIBCMT:mlock.obj
 0001:0000f50c       __crtCaptureCurrentContext 000000018001050c f   LIBCMT:winapisupp.obj
 0001:0000f57c       __crtCapturePreviousContext 000000018001057c f   LIBCMT:winapisupp.obj
 0001:0000f5f0       __crtFlsAlloc              00000001800105f0 f   LIBCMT:winapisupp.obj
 0001:0000f60c       __crtFlsFree               000000018001060c f   LIBCMT:winapisupp.obj
 0001:0000f628       __crtFlsGetValue           0000000180010628 f   LIBCMT:winapisupp.obj
 0001:0000f644       __crtFlsSetValue           0000000180010644 f   LIBCMT:winapisupp.obj
 0001:0000f660       __crtInitializeCriticalSectionEx 0000000180010660 f   LIBCMT:winapisupp.obj
 0001:0000f68c       __crtIsPackagedApp         000000018001068c f   LIBCMT:winapisupp.obj
 0001:0000f6d8       __crtLoadWinApiPointers    00000001800106d8 f   LIBCMT:winapisupp.obj
 0001:0000fad4       __crtSleep                 0000000180010ad4 f   LIBCMT:winapisupp.obj
 0001:0000fadc       __crtTerminateProcess      0000000180010adc f   LIBCMT:winapisupp.obj
 0001:0000fafc       __crtUnhandledException    0000000180010afc f   LIBCMT:winapisupp.obj
 0001:0000fb20       _FindPESection             0000000180010b20 f   LIBCMT:pesect.obj
 0001:0000fb70       _IsNonwritableInCurrentImage 0000000180010b70 f   LIBCMT:pesect.obj
 0001:0000fbc0       _ValidateImageBase         0000000180010bc0 f   LIBCMT:pesect.obj
 0001:0000fbf0       _initp_misc_cfltcvt_tab    0000000180010bf0 f   LIBCMT:cmiscdat.obj
 0001:0000fc2c       ?_inconsistency@@YAXXZ     0000000180010c2c f   LIBCMT:hooks.obj
 0001:0000fc4c       ?terminate@@YAXXZ          0000000180010c4c f   LIBCMT:hooks.obj
 0001:0000fc6c       _initp_eh_hooks            0000000180010c6c f   LIBCMT:hooks.obj
 0001:0000fc8c       _initp_misc_rand_s         0000000180010c8c f   LIBCMT:rand_s.obj
 0001:0000fc94       __initmbctable             0000000180010c94 f   LIBCMT:mbctype.obj
 0001:0000ffb0       __updatetmbcinfo           0000000180010fb0 f   LIBCMT:mbctype.obj
 0001:0001006c       _setmbcp                   000000018001106c f   LIBCMT:mbctype.obj
 0001:000102b0       _setmbcp_nolock            00000001800112b0 f   LIBCMT:mbctype.obj
 0001:00010560       __addlocaleref             0000000180011560 f   LIBCMT:localref.obj
 0001:000105ec       __freetlocinfo             00000001800115ec f   LIBCMT:localref.obj
 0001:00010784       __removelocaleref          0000000180011784 f   LIBCMT:localref.obj
 0001:00010828       __updatetlocinfo           0000000180011828 f   LIBCMT:localref.obj
 0001:000108a0       _updatetlocinfoEx_nolock   00000001800118a0 f   LIBCMT:localref.obj
 0001:00010904       _tolower_l                 0000000180011904 f   LIBCMT:tolower.obj
 0001:00010a58       tolower                    0000000180011a58 f   LIBCMT:tolower.obj
 0001:00010a78       _locterm                   0000000180011a78 f   LIBCMT:wsetloca.obj
 0001:00010ac0       _XcptFilter                0000000180011ac0 f   LIBCMT:winxfltr.obj
 0001:00010c8c       __CppXcptFilter            0000000180011c8c f   LIBCMT:winxfltr.obj
 0001:00010ca0       _ioinit                    0000000180011ca0 f   LIBCMT:ioinit.obj
 0001:00010fd0       _ioterm                    0000000180011fd0 f   LIBCMT:ioinit.obj
 0001:00011044       _setargv                   0000000180012044 f   LIBCMT:stdargv.obj
 0001:00011300       _setenvp                   0000000180012300 f   LIBCMT:stdenvp.obj
 0001:00011434       __security_init_cookie     0000000180012434 f   LIBCMT:gs_support.obj
 0001:000114e0       DllMain                    00000001800124e0 f   LIBCMT:dllmain.obj
 0001:000114e8       __crtGetEnvironmentStringsA 00000001800124e8 f   LIBCMT:a_env.obj
 0001:000115dc       __DestructExceptionObject  00000001800125dc f   LIBCMT:frame.obj
 0001:0001164c       ??0bad_exception@std@@QEAA@AEBV01@@Z 000000018001264c f i LIBCMT:frame.obj
 0001:00011670       ??1bad_exception@std@@UEAA@XZ 0000000180012670 f i LIBCMT:frame.obj
 0001:00011680       ??_Ebad_exception@std@@UEAAPEAXI@Z 0000000180012680 f i LIBCMT:frame.obj
 0001:00011680       ??_Gbad_exception@std@@UEAAPEAXI@Z 0000000180012680 f i LIBCMT:frame.obj
 0001:00011f74       __AdjustPointer            0000000180012f74 f   LIBCMT:frame.obj
 0001:00011f98       __BuildCatchObject         0000000180012f98 f   LIBCMT:frame.obj
 0001:00012050       __BuildCatchObjectHelper   0000000180013050 f   LIBCMT:frame.obj
 0001:000122a0       __CxxCallCatchBlock        00000001800132a0 f   LIBCMT:frame.obj
 0001:000124a4       __FrameUnwindFilter        00000001800134a4 f   LIBCMT:frame.obj
 0001:000124f8       __FrameUnwindToState       00000001800134f8 f   LIBCMT:frame.obj
 0001:0001268c       __InternalCxxFrameHandler  000000018001368c f   LIBCMT:frame.obj
 0001:000128b0       __TypeMatch                00000001800138b0 f   LIBCMT:frame.obj
 0001:000129e0       ?__GetCurrentState@@YAHPEA_KPEAU_xDISPATCHER_CONTEXT@@PEBU_s_FuncInfo@@@Z 00000001800139e0 f   LIBCMT:ehstate.obj
 0001:00012a08       ?__GetUnwindTryBlock@@YAHPEA_KPEAU_xDISPATCHER_CONTEXT@@PEBU_s_FuncInfo@@@Z 0000000180013a08 f   LIBCMT:ehstate.obj
 0001:00012a34       ?__SetState@@YAXPEA_KPEAU_xDISPATCHER_CONTEXT@@PEBU_s_FuncInfo@@H@Z 0000000180013a34 f   LIBCMT:ehstate.obj
 0001:00012a40       ?__SetUnwindTryBlock@@YAXPEA_KPEAU_xDISPATCHER_CONTEXT@@PEBU_s_FuncInfo@@H@Z 0000000180013a40 f   LIBCMT:ehstate.obj
 0001:00012a7c       ?__StateFromControlPc@@YAHPEBU_s_FuncInfo@@PEAU_xDISPATCHER_CONTEXT@@@Z 0000000180013a7c f   LIBCMT:ehstate.obj
 0001:00012a84       ?__StateFromIp@@YAHPEBU_s_FuncInfo@@PEAU_xDISPATCHER_CONTEXT@@_J@Z 0000000180013a84 f   LIBCMT:ehstate.obj
 0001:00012b10       _cfltcvt                   0000000180013b10 f   LIBCMT:cvt.obj
 0001:00012b34       _cfltcvt_l                 0000000180013b34 f   LIBCMT:cvt.obj
 0001:00012bb4       _cftoa_l                   0000000180013bb4 f   LIBCMT:cvt.obj
 0001:00013160       _cftoe_l                   0000000180014160 f   LIBCMT:cvt.obj
 0001:000133bc       _cftof_l                   00000001800143bc f   LIBCMT:cvt.obj
 0001:00013490       _cftog_l                   0000000180014490 f   LIBCMT:cvt.obj
 0001:000135c4       _cropzeros                 00000001800145c4 f   LIBCMT:cvt.obj
 0001:000135cc       _cropzeros_l               00000001800145cc f   LIBCMT:cvt.obj
 0001:00013664       _fassign                   0000000180014664 f   LIBCMT:cvt.obj
 0001:0001366c       _fassign_l                 000000018001466c f   LIBCMT:cvt.obj
 0001:000136ac       _forcdecpt                 00000001800146ac f   LIBCMT:cvt.obj
 0001:000136b4       _forcdecpt_l               00000001800146b4 f   LIBCMT:cvt.obj
 0001:00013734       _positive                  0000000180014734 f   LIBCMT:cvt.obj
 0001:00013748       strcpy_s                   0000000180014748 f   LIBCMT:strcpy_s.obj
 0001:000137ac       __crt_debugger_hook        00000001800147ac f   LIBCMT:dbghook.obj
 0001:000137b4       _fileno                    00000001800147b4 f   LIBCMT:fileno.obj
 0001:000137dc       _isatty                    00000001800147dc f   LIBCMT:isatty.obj
 0001:0001383c       _lseeki64                  000000018001483c f   LIBCMT:lseeki64.obj
 0001:00013924       _lseeki64_nolock           0000000180014924 f   LIBCMT:lseeki64.obj
 0001:000139b8       _getbuf                    00000001800149b8 f   LIBCMT:_getbuf.obj
 0001:00013a0c       _isleadbyte_l              0000000180014a0c f i LIBCMT:_wctype.obj
 0001:00013a50       isleadbyte                 0000000180014a50 f i LIBCMT:_wctype.obj
 0001:00013a98       _wctomb_s_l                0000000180014a98 f   LIBCMT:wctomb.obj
 0001:00013c24       wctomb_s                   0000000180014c24 f   LIBCMT:wctomb.obj
 0001:00013c38       _mbtowc_l                  0000000180014c38 f   LIBCMT:mbtowc.obj
 0001:00013d8c       mbtowc                     0000000180014d8c f   LIBCMT:mbtowc.obj
 0001:00013d94       _putwch_nolock             0000000180014d94 f   LIBCMT:putwch.obj
 0001:00013e00       _alloca_probe              0000000180014e00 f   LIBCMT:chkstk.obj
 0001:00013e00       __chkstk                   0000000180014e00 f   LIBCMT:chkstk.obj
 0001:00013e60       _local_unwind              0000000180014e60 f   LIBCMT:jmpuwind.obj
 0001:00013e90       _NLG_Notify                0000000180014e90 f   LIBCMT:jmpuwind.obj
 0001:00013eb0       __NLG_Dispatch2            0000000180014eb0 f   LIBCMT:jmpuwind.obj
 0001:00013ec0       __NLG_Return2              0000000180014ec0 f   LIBCMT:jmpuwind.obj
 0001:00013ec4       wcsncpy_s                  0000000180014ec4 f   LIBCMT:wcsncpy_s.obj
 0001:00013f90       _fcloseall                 0000000180014f90 f   LIBCMT:closeall.obj
 0001:00014038       _commit                    0000000180015038 f   LIBCMT:commit.obj
 0001:00014110       _freebuf                   0000000180015110 f   LIBCMT:_freebuf.obj
 0001:00014148       _woutput_l                 0000000180015148 f   LIBCMT:woutput.obj
 0001:00014d08       realloc                    0000000180015d08 f   LIBCMT:realloc.obj
 0001:00014ddc       _calloc_impl               0000000180015ddc f   LIBCMT:calloc_impl.obj
 0001:00014e78       GetTableIndexFromLocaleName 0000000180015e78 f   LIBCMT:winapinls.obj
 0001:00014f04       __crtDownlevelLocaleNameToLCID 0000000180015f04 f   LIBCMT:winapinls.obj
 0001:00014f38       __crtLCMapStringEx         0000000180015f38 f   LIBCMT:winapinls.obj
 0001:00014fc8       __wcsnicmp_ascii           0000000180015fc8 f   LIBCMT:winapinls.obj
 0001:00015030       _get_fpsr                  0000000180016030 f   LIBCMT:fpsr.obj
 0001:00015040       _set_fpsr                  0000000180016040 f   LIBCMT:fpsr.obj
 0001:0001504a       _fclrf                     000000018001604a f   LIBCMT:fpsr.obj
 0001:0001505e       _frnd                      000000018001605e f   LIBCMT:fpsr.obj
 0001:00015080       _fptrap                    0000000180016080 f   LIBCMT:crt0fp.obj
 0001:00015378       __crtLCMapStringA          0000000180016378 f   LIBCMT:a_map.obj
 0001:00015588       __crtGetStringTypeA        0000000180016588 f   LIBCMT:a_str.obj
 0001:00015604       __free_lconv_mon           0000000180016604 f   LIBCMT:initmon.obj
 0001:00015710       __free_lconv_num           0000000180016710 f   LIBCMT:initnum.obj
 0001:0001577c       __free_lc_time             000000018001677c f   LIBCMT:inittime.obj
 0001:00015b78       _isctype_l                 0000000180016b78 f   LIBCMT:isctype.obj
 0001:00015c70       memcmp                     0000000180016c70 f   LIBCMT:memcmp.obj
 0001:00015db4       _ismbblead                 0000000180016db4 f   LIBCMT:ismbbyte.obj
 0001:00015dc8       ?_ValidateExecute@@YAHP6A_JXZ@Z 0000000180016dc8 f   LIBCMT:validate.obj
 0001:00015dc8       ?_ValidateWrite@@YAHPEAXI@Z 0000000180016dc8 f   LIBCMT:validate.obj
 0001:00015dc8       ?_ValidateRead@@YAHPEBXI@Z 0000000180016dc8 f   LIBCMT:validate.obj
 0001:00015df0       _CallSettingFrame          0000000180016df0 f   LIBCMT:handlers.obj
 0001:00015e30       _GetNextInstrOffset        0000000180016e30 f   LIBCMT:handlers.obj
 0001:00015e38       isdigit                    0000000180016e38 f i LIBCMT:_ctype.obj
 0001:00015eb4       strrchr                    0000000180016eb4 f   LIBCMT:strrchr.obj
 0001:00015ff8       _fptostr                   0000000180016ff8 f   LIBCMT:_fptostr.obj
 0001:000160c4       __crt_atoflt_l             00000001800170c4 f   LIBCMT:atodbl.obj
 0001:00016194       _atodbl_l                  0000000180017194 f   LIBCMT:atodbl.obj
 0001:0001625c       _atoflt_l                  000000018001725c f   LIBCMT:atodbl.obj
 0001:00016264       __dtold                    0000000180017264 f   LIBCMT:cfout.obj
 0001:00016334       _fltout2                   0000000180017334 f   LIBCMT:cfout.obj
 0001:000163ec       __termconout               00000001800173ec f   LIBCMT:initcon.obj
 0001:0001640c       __initconout               000000018001740c f   LIBCMT:initcon.obj
 0001:00016448       _fclose_nolock             0000000180017448 f   LIBCMT:fclose.obj
 0001:000164c4       fclose                     00000001800174c4 f   LIBCMT:fclose.obj
 0001:0001652c       _fputwc_nolock             000000018001752c f   LIBCMT:fputwc.obj
 0001:00016720       _ld12tod                   0000000180017720 f   LIBCMT:intrncvt.obj
 0001:00016cd8       _ld12tof                   0000000180017cd8 f   LIBCMT:intrncvt.obj
 0001:00017290       __strgtold12_l             0000000180018290 f   LIBCMT:strgtold.obj
 0001:00017af4       $I10_OUTPUT                0000000180018af4 f   LIBCMT:x10fout.obj
 0001:000185cc       _close                     00000001800195cc f   LIBCMT:close.obj
 0001:00018690       _close_nolock              0000000180019690 f   LIBCMT:close.obj
 0001:0001874c       _flswbuf                   000000018001974c f   LIBCMT:_flswbuf.obj
 0001:000188dc       __mtold12                  00000001800198dc f   LIBCMT:mantold.obj
 0001:00018b00       RtlUnwindEx                0000000180019b00 f   kernel32:KERNEL32.dll
 0001:00018b06       IsProcessorFeaturePresent  0000000180019b06 f   kernel32:KERNEL32.dll
 0001:00018b0c       __delayLoadHelper2         0000000180019b0c f   DelayImp:delayhlp.obj
 0002:00000000       __imp_GetModuleHandleA     000000018001b000     kernel32:KERNEL32.dll
 0002:00000008       __imp_GetLastError         000000018001b008     kernel32:KERNEL32.dll
 0002:00000010       __imp_HeapFree             000000018001b010     kernel32:KERNEL32.dll
 0002:00000018       __imp_HeapAlloc            000000018001b018     kernel32:KERNEL32.dll
 0002:00000020       __imp_GetStdHandle         000000018001b020     kernel32:KERNEL32.dll
 0002:00000028       __imp_GetFileType          000000018001b028     kernel32:KERNEL32.dll
 0002:00000030       __imp_GetModuleFileNameW   000000018001b030     kernel32:KERNEL32.dll
 0002:00000038       __imp_GetModuleHandleExW   000000018001b038     kernel32:KERNEL32.dll
 0002:00000040       __imp_WriteConsoleW        000000018001b040     kernel32:KERNEL32.dll
 0002:00000048       __imp_EncodePointer        000000018001b048     kernel32:KERNEL32.dll
 0002:00000050       __imp_DecodePointer        000000018001b050     kernel32:KERNEL32.dll
 0002:00000058       __imp_ExitProcess          000000018001b058     kernel32:KERNEL32.dll
 0002:00000060       __imp_GetProcAddress       000000018001b060     kernel32:KERNEL32.dll
 0002:00000068       __imp_MultiByteToWideChar  000000018001b068     kernel32:KERNEL32.dll
 0002:00000070       __imp_WideCharToMultiByte  000000018001b070     kernel32:KERNEL32.dll
 0002:00000078       __imp_GetCommandLineA      000000018001b078     kernel32:KERNEL32.dll
 0002:00000080       __imp_GetCurrentThreadId   000000018001b080     kernel32:KERNEL32.dll
 0002:00000088       __imp_RtlPcToFileHeader    000000018001b088     kernel32:KERNEL32.dll
 0002:00000090       __imp_RaiseException       000000018001b090     kernel32:KERNEL32.dll
 0002:00000098       __imp_RtlLookupFunctionEntry 000000018001b098     kernel32:KERNEL32.dll
 0002:000000a0       __imp_RtlUnwindEx          000000018001b0a0     kernel32:KERNEL32.dll
 0002:000000a8       __imp_IsDebuggerPresent    000000018001b0a8     kernel32:KERNEL32.dll
 0002:000000b0       __imp_IsProcessorFeaturePresent 000000018001b0b0     kernel32:KERNEL32.dll
 0002:000000b8       __imp_SetStdHandle         000000018001b0b8     kernel32:KERNEL32.dll
 0002:000000c0       __imp_EnterCriticalSection 000000018001b0c0     kernel32:KERNEL32.dll
 0002:000000c8       __imp_LeaveCriticalSection 000000018001b0c8     kernel32:KERNEL32.dll
 0002:000000d0       __imp_WriteFile            000000018001b0d0     kernel32:KERNEL32.dll
 0002:000000d8       __imp_GetConsoleCP         000000018001b0d8     kernel32:KERNEL32.dll
 0002:000000e0       __imp_GetConsoleMode       000000018001b0e0     kernel32:KERNEL32.dll
 0002:000000e8       __imp_GetProcessHeap       000000018001b0e8     kernel32:KERNEL32.dll
 0002:000000f0       __imp_SetLastError         000000018001b0f0     kernel32:KERNEL32.dll
 0002:000000f8       __imp_OutputDebugStringW   000000018001b0f8     kernel32:KERNEL32.dll
 0002:00000100       __imp_LoadLibraryExW       000000018001b100     kernel32:KERNEL32.dll
 0002:00000108       __imp_HeapSize             000000018001b108     kernel32:KERNEL32.dll
 0002:00000110       __imp_DeleteCriticalSection 000000018001b110     kernel32:KERNEL32.dll
 0002:00000118       __imp_RtlCaptureContext    000000018001b118     kernel32:KERNEL32.dll
 0002:00000120       __imp_RtlVirtualUnwind     000000018001b120     kernel32:KERNEL32.dll
 0002:00000128       __imp_UnhandledExceptionFilter 000000018001b128     kernel32:KERNEL32.dll
 0002:00000130       __imp_SetUnhandledExceptionFilter 000000018001b130     kernel32:KERNEL32.dll
 0002:00000138       __imp_InitializeCriticalSectionAndSpinCount 000000018001b138     kernel32:KERNEL32.dll
 0002:00000140       __imp_Sleep                000000018001b140     kernel32:KERNEL32.dll
 0002:00000148       __imp_GetCurrentProcess    000000018001b148     kernel32:KERNEL32.dll
 0002:00000150       __imp_TerminateProcess     000000018001b150     kernel32:KERNEL32.dll
 0002:00000158       __imp_TlsAlloc             000000018001b158     kernel32:KERNEL32.dll
 0002:00000160       __imp_TlsGetValue          000000018001b160     kernel32:KERNEL32.dll
 0002:00000168       __imp_TlsSetValue          000000018001b168     kernel32:KERNEL32.dll
 0002:00000170       __imp_TlsFree              000000018001b170     kernel32:KERNEL32.dll
 0002:00000178       __imp_GetStartupInfoW      000000018001b178     kernel32:KERNEL32.dll
 0002:00000180       __imp_GetModuleHandleW     000000018001b180     kernel32:KERNEL32.dll
 0002:00000188       __imp_FreeLibrary          000000018001b188     kernel32:KERNEL32.dll
 0002:00000190       __imp_IsValidCodePage      000000018001b190     kernel32:KERNEL32.dll
 0002:00000198       __imp_GetACP               000000018001b198     kernel32:KERNEL32.dll
 0002:000001a0       __imp_GetOEMCP             000000018001b1a0     kernel32:KERNEL32.dll
 0002:000001a8       __imp_GetCPInfo            000000018001b1a8     kernel32:KERNEL32.dll
 0002:000001b0       __imp_GetModuleFileNameA   000000018001b1b0     kernel32:KERNEL32.dll
 0002:000001b8       __imp_QueryPerformanceCounter 000000018001b1b8     kernel32:KERNEL32.dll
 0002:000001c0       __imp_GetCurrentProcessId  000000018001b1c0     kernel32:KERNEL32.dll
 0002:000001c8       __imp_GetSystemTimeAsFileTime 000000018001b1c8     kernel32:KERNEL32.dll
 0002:000001d0       __imp_GetEnvironmentStringsW 000000018001b1d0     kernel32:KERNEL32.dll
 0002:000001d8       __imp_FreeEnvironmentStringsW 000000018001b1d8     kernel32:KERNEL32.dll
 0002:000001e0       __imp_SetFilePointerEx     000000018001b1e0     kernel32:KERNEL32.dll
 0002:000001e8       __imp_FlushFileBuffers     000000018001b1e8     kernel32:KERNEL32.dll
 0002:000001f0       __imp_HeapReAlloc          000000018001b1f0     kernel32:KERNEL32.dll
 0002:000001f8       __imp_LCMapStringW         000000018001b1f8     kernel32:KERNEL32.dll
 0002:00000200       __imp_GetStringTypeW       000000018001b200     kernel32:KERNEL32.dll
 0002:00000208       __imp_CreateFileW          000000018001b208     kernel32:KERNEL32.dll
 0002:00000210       __imp_CloseHandle          000000018001b210     kernel32:KERNEL32.dll
 0002:00000218       __imp_LoadLibraryExA       000000018001b218     kernel32:KERNEL32.dll
 0002:00000220       \177KERNEL32_NULL_THUNK_DATA 000000018001b220     kernel32:KERNEL32.dll
 0002:00000228       __xc_a                     000000018001b228     LIBCMT:crt0init.obj
 0002:00000248       _register_bson_            000000018001b248     bson.obj
 0002:00000250       __xc_z                     000000018001b250     LIBCMT:crt0init.obj
 0002:00000258       __xi_a                     000000018001b258     LIBCMT:crt0init.obj
 0002:00000280       __xi_z                     000000018001b280     LIBCMT:crt0init.obj
 0002:00000288       __xp_a                     000000018001b288     LIBCMT:crt0init.obj
 0002:000002a8       __xp_z                     000000018001b2a8     LIBCMT:crt0init.obj
 0002:000002b0       __xt_a                     000000018001b2b0     LIBCMT:crt0init.obj
 0002:000002b8       __xt_z                     000000018001b2b8     LIBCMT:crt0init.obj
 0002:00000300       __sz_node_exe              000000018001b300     node:node.exe
 0002:00000cb0       ??_C@_0BC@CIJDGCDI@permission?5denied?$AA@ 000000018001bcb0     libcpmt:syserror.obj
 0002:00000cc8       ??_C@_0M@MIDIAGJP@file?5exists?$AA@ 000000018001bcc8     libcpmt:syserror.obj
 0002:00000cd8       ??_C@_0P@FDINDDOK@no?5such?5device?$AA@ 000000018001bcd8     libcpmt:syserror.obj
 0002:00000ce8       ??_C@_0BC@EJHOMAAK@filename?5too?5long?$AA@ 000000018001bce8     libcpmt:syserror.obj
 0002:00000d00       ??_C@_0BI@NGCEHDD@device?5or?5resource?5busy?$AA@ 000000018001bd00     libcpmt:syserror.obj
 0002:00000d18       ??_C@_08GLNPIFBN@io?5error?$AA@ 000000018001bd18     libcpmt:syserror.obj
 0002:00000d28       ??_C@_0BE@JIDOCPHM@directory?5not?5empty?$AA@ 000000018001bd28     libcpmt:syserror.obj
 0002:00000d40       ??_C@_0BB@FCMFBGOM@invalid?5argument?$AA@ 000000018001bd40     libcpmt:syserror.obj
 0002:00000d58       ??_C@_0BD@IJDJKDEA@no?5space?5on?5device?$AA@ 000000018001bd58     libcpmt:syserror.obj
 0002:00000d70       ??_C@_0BK@NDOCBPGE@no?5such?5file?5or?5directory?$AA@ 000000018001bd70     libcpmt:syserror.obj
 0002:00000d90       ??_C@_0BH@KEFGLDAF@function?5not?5supported?$AA@ 000000018001bd90     libcpmt:syserror.obj
 0002:00000da8       ??_C@_0BC@NJECKMKE@no?5lock?5available?$AA@ 000000018001bda8     libcpmt:syserror.obj
 0002:00000dc0       ??_C@_0BC@ENOOLCNF@not?5enough?5memory?$AA@ 000000018001bdc0     libcpmt:syserror.obj
 0002:00000dd8       ??_C@_0BP@LKNGHENJ@resource?5unavailable?5try?5again?$AA@ 000000018001bdd8     libcpmt:syserror.obj
 0002:00000df8       ??_C@_0BC@PPHBOELF@cross?5device?5link?$AA@ 000000018001bdf8     libcpmt:syserror.obj
 0002:00000e10       ??_C@_0BD@MOLBPMEA@operation?5canceled?$AA@ 000000018001be10     libcpmt:syserror.obj
 0002:00000e28       ??_C@_0BE@GHAFMPAH@too?5many?5files?5open?$AA@ 000000018001be28     libcpmt:syserror.obj
 0002:00000e40       ??_C@_0BC@FNODOBAE@permission_denied?$AA@ 000000018001be40     libcpmt:syserror.obj
 0002:00000e58       ??_C@_0P@LNDJPBFK@address_in_use?$AA@ 000000018001be58     libcpmt:syserror.obj
 0002:00000e68       ??_C@_0BG@IPMGOJF@address_not_available?$AA@ 000000018001be68     libcpmt:syserror.obj
 0002:00000e80       ??_C@_0BN@LCBDHODA@address_family_not_supported?$AA@ 000000018001be80     libcpmt:syserror.obj
 0002:00000ea0       ??_C@_0BP@FOJJHMCC@connection_already_in_progress?$AA@ 000000018001bea0     libcpmt:syserror.obj
 0002:00000ec0       ??_C@_0BE@DLHHIBGN@bad_file_descriptor?$AA@ 000000018001bec0     libcpmt:syserror.obj
 0002:00000ed8       ??_C@_0BD@OJMJDIGI@connection_aborted?$AA@ 000000018001bed8     libcpmt:syserror.obj
 0002:00000ef0       ??_C@_0BD@NGKCIFEP@connection_refused?$AA@ 000000018001bef0     libcpmt:syserror.obj
 0002:00000f08       ??_C@_0BB@JOANDNCK@connection_reset?$AA@ 000000018001bf08     libcpmt:syserror.obj
 0002:00000f20       ??_C@_0BN@JLJNLKLK@destination_address_required?$AA@ 000000018001bf20     libcpmt:syserror.obj
 0002:00000f40       ??_C@_0M@IJGMGFGP@bad_address?$AA@ 000000018001bf40     libcpmt:syserror.obj
 0002:00000f50       ??_C@_0BB@KKNHPPIN@host_unreachable?$AA@ 000000018001bf50     libcpmt:syserror.obj
 0002:00000f68       ??_C@_0BG@DJGBJIIK@operation_in_progress?$AA@ 000000018001bf68     libcpmt:syserror.obj
 0002:00000f80       ??_C@_0M@EGEKIIMP@interrupted?$AA@ 000000018001bf80     libcpmt:syserror.obj
 0002:00000f90       ??_C@_0BB@FFIHMIPJ@invalid_argument?$AA@ 000000018001bf90     libcpmt:syserror.obj
 0002:00000fa8       ??_C@_0BC@FIFLCHLO@already_connected?$AA@ 000000018001bfa8     libcpmt:syserror.obj
 0002:00000fc0       ??_C@_0BE@GJJJJDDA@too_many_files_open?$AA@ 000000018001bfc0     libcpmt:syserror.obj
 0002:00000fd8       ??_C@_0N@HPMLKHPL@message_size?$AA@ 000000018001bfd8     libcpmt:syserror.obj
 0002:00000fe8       ??_C@_0BC@LEEIKBAL@filename_too_long?$AA@ 000000018001bfe8     libcpmt:syserror.obj
 0002:00001000       ??_C@_0N@FCPALPJK@network_down?$AA@ 000000018001c000     libcpmt:syserror.obj
 0002:00001010       ??_C@_0O@EHNDLHIG@network_reset?$AA@ 000000018001c010     libcpmt:syserror.obj
 0002:00001020       ??_C@_0BE@JFNJIDNF@network_unreachable?$AA@ 000000018001c020     libcpmt:syserror.obj
 0002:00001038       ??_C@_0BA@FDIJKJCL@no_buffer_space?$AA@ 000000018001c038     libcpmt:syserror.obj
 0002:00001048       ??_C@_0BD@JHIHCGKP@no_protocol_option?$AA@ 000000018001c048     libcpmt:syserror.obj
 0002:00001060       ??_C@_0O@GBCLHHD@not_connected?$AA@ 000000018001c060     libcpmt:syserror.obj
 0002:00001070       ??_C@_0N@IMHKKLEM@not_a_socket?$AA@ 000000018001c070     libcpmt:syserror.obj
 0002:00001080       ??_C@_0BI@ICEIDKLJ@operation_not_supported?$AA@ 000000018001c080     libcpmt:syserror.obj
 0002:00001098       ??_C@_0BH@KAPBAIJF@protocol_not_supported?$AA@ 000000018001c098     libcpmt:syserror.obj
 0002:000010b0       ??_C@_0BE@GAOJJFPC@wrong_protocol_type?$AA@ 000000018001c0b0     libcpmt:syserror.obj
 0002:000010c8       ??_C@_09NCHNLHPG@timed_out?$AA@ 000000018001c0c8     libcpmt:syserror.obj
 0002:000010d8       ??_C@_0BG@GDGHKFDH@operation_would_block?$AA@ 000000018001c0d8     libcpmt:syserror.obj
 0002:000010f0       ??_C@_0BN@LKKBCCDB@address?5family?5not?5supported?$AA@ 000000018001c0f0     libcpmt:syserror.obj
 0002:00001110       ??_C@_0P@LDMLAFHI@address?5in?5use?$AA@ 000000018001c110     libcpmt:syserror.obj
 0002:00001120       ??_C@_0BG@DHPCNBJB@address?5not?5available?$AA@ 000000018001c120     libcpmt:syserror.obj
 0002:00001138       ??_C@_0BC@DFIBIBIL@already?5connected?$AA@ 000000018001c138     libcpmt:syserror.obj
 0002:00001150       ??_C@_0BH@CAKOHOMI@argument?5list?5too?5long?$AA@ 000000018001c150     libcpmt:syserror.obj
 0002:00001168       ??_C@_0BH@CGIMPKIM@argument?5out?5of?5domain?$AA@ 000000018001c168     libcpmt:syserror.obj
 0002:00001180       ??_C@_0M@KGHGGJGL@bad?5address?$AA@ 000000018001c180     libcpmt:syserror.obj
 0002:00001190       ??_C@_0BE@MPJPGCEO@bad?5file?5descriptor?$AA@ 000000018001c190     libcpmt:syserror.obj
 0002:000011a8       ??_C@_0M@PMMIEFCP@bad?5message?$AA@ 000000018001c1a8     libcpmt:syserror.obj
 0002:000011b8       ??_C@_0M@KPHOFDBE@broken?5pipe?$AA@ 000000018001c1b8     libcpmt:syserror.obj
 0002:000011c8       ??_C@_0BD@MGNDDEGM@connection?5aborted?$AA@ 000000018001c1c8     libcpmt:syserror.obj
 0002:000011e0       ??_C@_0BP@KAIHPOGN@connection?5already?5in?5progress?$AA@ 000000018001c1e0     libcpmt:syserror.obj
 0002:00001200       ??_C@_0BD@PJLIIJEL@connection?5refused?$AA@ 000000018001c200     libcpmt:syserror.obj
 0002:00001218       ??_C@_0BB@IECNJNOI@connection?5reset?$AA@ 000000018001c218     libcpmt:syserror.obj
 0002:00001230       ??_C@_0BN@KDMIFEIP@destination?5address?5required?$AA@ 000000018001c230     libcpmt:syserror.obj
 0002:00001250       ??_C@_0BI@BNCLIGPB@executable?5format?5error?$AA@ 000000018001c250     libcpmt:syserror.obj
 0002:00001268       ??_C@_0P@DNAJLBJK@file?5too?5large?$AA@ 000000018001c268     libcpmt:syserror.obj
 0002:00001278       ??_C@_0BB@DHFDFGDM@host?5unreachable?$AA@ 000000018001c278     libcpmt:syserror.obj
 0002:00001290       ??_C@_0BD@JPHBMONG@identifier?5removed?$AA@ 000000018001c290     libcpmt:syserror.obj
 0002:000012a8       ??_C@_0BG@CDNPAGJK@illegal?5byte?5sequence?$AA@ 000000018001c2a8     libcpmt:syserror.obj
 0002:000012c0       ??_C@_0CD@BNPLBMNA@inappropriate?5io?5control?5operati@ 000000018001c2c0     libcpmt:syserror.obj
 0002:000012e8       ??_C@_0N@OHAFKDEK@invalid?5seek?$AA@ 000000018001c2e8     libcpmt:syserror.obj
 0002:000012f8       ??_C@_0P@FLLDBIDK@is?5a?5directory?$AA@ 000000018001c2f8     libcpmt:syserror.obj
 0002:00001308       ??_C@_0N@IFLPBIOP@message?5size?$AA@ 000000018001c308     libcpmt:syserror.obj
 0002:00001318       ??_C@_0N@KIIEAAIO@network?5down?$AA@ 000000018001c318     libcpmt:syserror.obj
 0002:00001328       ??_C@_0O@FNPDBHEE@network?5reset?$AA@ 000000018001c328     libcpmt:syserror.obj
 0002:00001338       ??_C@_0BE@IFNCKGE@network?5unreachable?$AA@ 000000018001c338     libcpmt:syserror.obj
 0002:00001350       ??_C@_0BA@PFFCAOFK@no?5buffer?5space?$AA@ 000000018001c350     libcpmt:syserror.obj
 0002:00001360       ??_C@_0BB@IEPBLJHK@no?5child?5process?$AA@ 000000018001c360     libcpmt:syserror.obj
 0002:00001378       ??_C@_07PLECNNKG@no?5link?$AA@ 000000018001c378     libcpmt:syserror.obj
 0002:00001380       ??_C@_0BF@PBGGPKKE@no?5message?5available?$AA@ 000000018001c380     libcpmt:syserror.obj
 0002:00001398       ??_C@_0L@EDOLMPAK@no?5message?$AA@ 000000018001c398     libcpmt:syserror.obj
 0002:000013a8       ??_C@_0BD@EAMBFIDF@no?5protocol?5option?$AA@ 000000018001c3a8     libcpmt:syserror.obj
 0002:000013c0       ??_C@_0BE@MKFDAFMP@no?5stream?5resources?$AA@ 000000018001c3c0     libcpmt:syserror.obj
 0002:000013d8       ??_C@_0BK@IMCPHCBI@no?5such?5device?5or?5address?$AA@ 000000018001c3d8     libcpmt:syserror.obj
 0002:000013f8       ??_C@_0BA@ENLPPKBN@no?5such?5process?$AA@ 000000018001c3f8     libcpmt:syserror.obj
 0002:00001408       ??_C@_0BA@DOCPFFJG@not?5a?5directory?$AA@ 000000018001c408     libcpmt:syserror.obj
 0002:00001418       ??_C@_0N@POEIPGGF@not?5a?5socket?$AA@ 000000018001c418     libcpmt:syserror.obj
 0002:00001428       ??_C@_0N@LGAPMMPI@not?5a?5stream?$AA@ 000000018001c428     libcpmt:syserror.obj
 0002:00001438       ??_C@_0O@GLMIBBEG@not?5connected?$AA@ 000000018001c438     libcpmt:syserror.obj
 0002:00001448       ??_C@_0O@NHEDABJP@not?5supported?$AA@ 000000018001c448     libcpmt:syserror.obj
 0002:00001458       ??_C@_0BG@KDKHOPCO@operation?5in?5progress?$AA@ 000000018001c458     libcpmt:syserror.obj
 0002:00001470       ??_C@_0BI@OHIEJAAB@operation?5not?5permitted?$AA@ 000000018001c470     libcpmt:syserror.obj
 0002:00001488       ??_C@_0BI@LNEGIFLN@operation?5not?5supported?$AA@ 000000018001c488     libcpmt:syserror.obj
 0002:000014a0       ??_C@_0BG@OEMDKMEE@operation?5would?5block?$AA@ 000000018001c4a0     libcpmt:syserror.obj
 0002:000014b8       ??_C@_0L@BLPOFLNJ@owner?5dead?$AA@ 000000018001c4b8     libcpmt:syserror.obj
 0002:000014c8       ??_C@_0P@FNPOCJBE@protocol?5error?$AA@ 000000018001c4c8     libcpmt:syserror.obj
 0002:000014d8       ??_C@_0BH@JPPPLHJB@protocol?5not?5supported?$AA@ 000000018001c4d8     libcpmt:syserror.obj
 0002:000014f0       ??_C@_0BG@EICBIHDP@read?5only?5file?5system?$AA@ 000000018001c4f0     libcpmt:syserror.obj
 0002:00001508       ??_C@_0BO@BJBOMOEJ@resource?5deadlock?5would?5occur?$AA@ 000000018001c508     libcpmt:syserror.obj
 0002:00001528       ??_C@_0BE@GOIPJJHG@result?5out?5of?5range?$AA@ 000000018001c528     libcpmt:syserror.obj
 0002:00001540       ??_C@_0BG@MPLKFPAE@state?5not?5recoverable?$AA@ 000000018001c540     libcpmt:syserror.obj
 0002:00001558       ??_C@_0P@DIIFGFCG@stream?5timeout?$AA@ 000000018001c558     libcpmt:syserror.obj
 0002:00001568       ??_C@_0P@IPFDMIFL@text?5file?5busy?$AA@ 000000018001c568     libcpmt:syserror.obj
 0002:00001578       ??_C@_09KJPPMAOI@timed?5out?$AA@ 000000018001c578     libcpmt:syserror.obj
 0002:00001588       ??_C@_0BO@HACHBEKI@too?5many?5files?5open?5in?5system?$AA@ 000000018001c588     libcpmt:syserror.obj
 0002:000015a8       ??_C@_0P@HCOMKFCC@too?5many?5links?$AA@ 000000018001c5a8     libcpmt:syserror.obj
 0002:000015b8       ??_C@_0BO@EFGOJEF@too?5many?5symbolic?5link?5levels?$AA@ 000000018001c5b8     libcpmt:syserror.obj
 0002:000015d8       ??_C@_0BA@KGKGOOJA@value?5too?5large?$AA@ 000000018001c5d8     libcpmt:syserror.obj
 0002:000015e8       ??_C@_0BE@MIEJDDNH@wrong?5protocol?5type?$AA@ 000000018001c5e8     libcpmt:syserror.obj
 0002:00001608       ??_7bad_alloc@std@@6B@     000000018001c608     libcpmt:xthrow.obj
 0002:00001618       ??_C@_0P@GHFPNOJB@bad?5allocation?$AA@ 000000018001c618     libcpmt:xthrow.obj
 0002:00001628       ??_C@_02LMMGGCAJ@?3?5?$AA@ 000000018001c628     LIBCMT:perror.obj
 0002:0000162c       ??_C@_01EEMJAFIK@?6?$AA@   000000018001c62c     LIBCMT:perror.obj
 0002:00001630       ??_C@_17LGKOMLJ@?$AA?4?$AA?4?$AA?4?$AA?$AA@ 000000018001c630     LIBCMT:wassert.obj
 0002:00001638       ??_C@_13LBAGMAIH@?$AA?6?$AA?$AA@ 000000018001c638     LIBCMT:wassert.obj
 0002:0000163c       ??_C@_15IABLJNFO@?$AA?6?$AA?6?$AA?$AA@ 000000018001c63c     LIBCMT:wassert.obj
 0002:00001648       ??_C@_1CE@OJBNHDMO@?$AAA?$AAs?$AAs?$AAe?$AAr?$AAt?$AAi?$AAo?$AAn?$AA?5?$AAf?$AAa?$AAi?$AAl?$AAe?$AAd?$AA?$CB?$AA?$AA@ 000000018001c648     LIBCMT:wassert.obj
 0002:00001670       ??_C@_1BE@PHKBBGE@?$AAP?$AAr?$AAo?$AAg?$AAr?$AAa?$AAm?$AA?3?$AA?5?$AA?$AA@ 000000018001c670     LIBCMT:wassert.obj
 0002:00001688       ??_C@_1CO@EAEJAADC@?$AA?$DM?$AAp?$AAr?$AAo?$AAg?$AAr?$AAa?$AAm?$AA?5?$AAn?$AAa?$AAm?$AAe?$AA?5?$AAu?$AAn?$AAk?$AAn?$AAo?$AAw?$AAn?$AA?$DO?$AA?$AA@ 000000018001c688     LIBCMT:wassert.obj
 0002:000016b8       ??_C@_1O@HEMHKNDC@?$AAF?$AAi?$AAl?$AAe?$AA?3?$AA?5?$AA?$AA@ 000000018001c6b8     LIBCMT:wassert.obj
 0002:000016c8       ??_C@_1O@KCAFKHJE@?$AAL?$AAi?$AAn?$AAe?$AA?3?$AA?5?$AA?$AA@ 000000018001c6c8     LIBCMT:wassert.obj
 0002:000016d8       ??_C@_1BK@PEDCIPMA@?$AAE?$AAx?$AAp?$AAr?$AAe?$AAs?$AAs?$AAi?$AAo?$AAn?$AA?3?$AA?5?$AA?$AA@ 000000018001c6d8     LIBCMT:wassert.obj
 0002:00001700       ??_C@_1OA@EGMLFBHJ@?$AAF?$AAo?$AAr?$AA?5?$AAi?$AAn?$AAf?$AAo?$AAr?$AAm?$AAa?$AAt?$AAi?$AAo?$AAn?$AA?5?$AAo?$AAn?$AA?5?$AAh?$AAo?$AAw?$AA?5?$AAy?$AAo?$AAu?$AAr?$AA?5?$AAp?$AAr?$AAo?$AAg@ 000000018001c700     LIBCMT:wassert.obj
 0002:000017e0       ??_C@_1HK@POCJMFGK@?$AA?$CI?$AAP?$AAr?$AAe?$AAs?$AAs?$AA?5?$AAR?$AAe?$AAt?$AAr?$AAy?$AA?5?$AAt?$AAo?$AA?5?$AAd?$AAe?$AAb?$AAu?$AAg?$AA?5?$AAt?$AAh?$AAe?$AA?5?$AAa?$AAp?$AAp?$AAl?$AAi?$AAc@ 000000018001c7e0     LIBCMT:wassert.obj
 0002:00001860       ??_C@_1EK@MBDPDCGA@?$AAM?$AAi?$AAc?$AAr?$AAo?$AAs?$AAo?$AAf?$AAt?$AA?5?$AAV?$AAi?$AAs?$AAu?$AAa?$AAl?$AA?5?$AAC?$AA?$CL?$AA?$CL?$AA?5?$AAR?$AAu?$AAn?$AAt?$AAi?$AAm?$AAe?$AA?5?$AAL?$AAi?$AAb@ 000000018001c860     LIBCMT:wassert.obj
 0002:000018ac       ??_C@_06MEIMCGCF@_hypot?$AA@ 000000018001c8ac     LIBCMT:hypot.obj
 0002:000018c0       ??_7type_info@@6B@         000000018001c8c0     LIBCMT:typinfo.obj
 0002:000018c8       ??_C@_1BI@BGOHAHKC@?$AAm?$AAs?$AAc?$AAo?$AAr?$AAe?$AAe?$AA?4?$AAd?$AAl?$AAl?$AA?$AA@ 000000018001c8c8     LIBCMT:crt0dat.obj
 0002:000018e0       ??_C@_0P@MIGLKIOC@CorExitProcess?$AA@ 000000018001c8e0     LIBCMT:crt0dat.obj
 0002:000018f0       _pRawDllMain               000000018001c8f0     LIBCMT:dllcrt0.obj
 0002:000018f0       _pDefaultRawDllMain        000000018001c8f0     LIBCMT:dllcrt0.obj
 0002:000019d8       _FPinit                    000000018001c9d8     LIBCMT:fpinit.obj
 0002:000019e8       ??_7exception@std@@6B@     000000018001c9e8     LIBCMT:stdexcpt.obj
 0002:000019f8       ??_C@_0BC@EOODALEL@Unknown?5exception?$AA@ 000000018001c9f8     LIBCMT:stdexcpt.obj
 0002:00001a20       ??_C@_06OJHGLDPL@?$CInull?$CJ?$AA@ 000000018001ca20     LIBCMT:output.obj
 0002:00001a28       ??_C@_1O@CEDCILHN@?$AA?$CI?$AAn?$AAu?$AAl?$AAl?$AA?$CJ?$AA?$AA@ 000000018001ca28     LIBCMT:output.obj
 0002:00001a40       __lookuptable              000000018001ca40     LIBCMT:output.obj
 0002:00001aa0       _sys_errlist               000000018001caa0     LIBCMT:syserr.obj
 0002:00001c00       ??_C@_08INEPGKHH@No?5error?$AA@ 000000018001cc00     LIBCMT:syserr.obj
 0002:00001c10       ??_C@_0BI@BJFCGOHL@Operation?5not?5permitted?$AA@ 000000018001cc10     LIBCMT:syserr.obj
 0002:00001c28       ??_C@_0BK@FMDHKPNF@No?5such?5file?5or?5directory?$AA@ 000000018001cc28     LIBCMT:syserr.obj
 0002:00001c48       ??_C@_0BA@FKIAIBGA@No?5such?5process?$AA@ 000000018001cc48     LIBCMT:syserr.obj
 0002:00001c58       ??_C@_0BK@FJBOAFDK@Interrupted?5function?5call?$AA@ 000000018001cc58     LIBCMT:syserr.obj
 0002:00001c78       ??_C@_0BD@KKNFOBBD@Input?1output?5error?$AA@ 000000018001cc78     LIBCMT:syserr.obj
 0002:00001c90       ??_C@_0BK@DPKMCKJ@No?5such?5device?5or?5address?$AA@ 000000018001cc90     LIBCMT:syserr.obj
 0002:00001cb0       ??_C@_0BC@MFFGCDFL@Arg?5list?5too?5long?$AA@ 000000018001ccb0     LIBCMT:syserr.obj
 0002:00001cc8       ??_C@_0BC@HKPNECK@Exec?5format?5error?$AA@ 000000018001ccc8     LIBCMT:syserr.obj
 0002:00001ce0       ??_C@_0BE@NFGDDCEF@Bad?5file?5descriptor?$AA@ 000000018001cce0     LIBCMT:syserr.obj
 0002:00001cf8       ??_C@_0BD@LOHELEP@No?5child?5processes?$AA@ 000000018001ccf8     LIBCMT:syserr.obj
 0002:00001d10       ??_C@_0CB@EPFKGNAK@Resource?5temporarily?5unavailable@ 000000018001cd10     LIBCMT:syserr.obj
 0002:00001d38       ??_C@_0BB@IMDKMPFB@Not?5enough?5space?$AA@ 000000018001cd38     LIBCMT:syserr.obj
 0002:00001d50       ??_C@_0BC@HFNFNKAI@Permission?5denied?$AA@ 000000018001cd50     LIBCMT:syserr.obj
 0002:00001d68       ??_C@_0M@LOEHLCJD@Bad?5address?$AA@ 000000018001cd68     LIBCMT:syserr.obj
 0002:00001d78       ??_C@_0O@NIPGCINC@Unknown?5error?$AA@ 000000018001cd78     LIBCMT:syserr.obj
 0002:00001d88       ??_C@_0BA@BIBLIOEK@Resource?5device?$AA@ 000000018001cd88     LIBCMT:syserr.obj
 0002:00001d98       ??_C@_0M@NAAJNNGH@File?5exists?$AA@ 000000018001cd98     LIBCMT:syserr.obj
 0002:00001da8       ??_C@_0O@OAMDNOCP@Improper?5link?$AA@ 000000018001cda8     LIBCMT:syserr.obj
 0002:00001db8       ??_C@_0P@NLEIANHE@No?5such?5device?$AA@ 000000018001cdb8     LIBCMT:syserr.obj
 0002:00001dc8       ??_C@_0BA@CJBACOOL@Not?5a?5directory?$AA@ 000000018001cdc8     LIBCMT:syserr.obj
 0002:00001dd8       ??_C@_0P@NDHGCGKE@Is?5a?5directory?$AA@ 000000018001cdd8     LIBCMT:syserr.obj
 0002:00001de8       ??_C@_0BB@HMGGCEBG@Invalid?5argument?$AA@ 000000018001cde8     LIBCMT:syserr.obj
 0002:00001e00       ??_C@_0BO@IIFBODJE@Too?5many?5open?5files?5in?5system?$AA@ 000000018001ce00     LIBCMT:syserr.obj
 0002:00001e20       ??_C@_0BE@INBJMKGG@Too?5many?5open?5files?$AA@ 000000018001ce20     LIBCMT:syserr.obj
 0002:00001e38       ??_C@_0CE@ONOKNLPF@Inappropriate?5I?1O?5control?5operat@ 000000018001ce38     LIBCMT:syserr.obj
 0002:00001e60       ??_C@_0P@LFMMIPAE@File?5too?5large?$AA@ 000000018001ce60     LIBCMT:syserr.obj
 0002:00001e70       ??_C@_0BI@FEALHKLD@No?5space?5left?5on?5device?$AA@ 000000018001ce70     LIBCMT:syserr.obj
 0002:00001e88       ??_C@_0N@FEHLOILP@Invalid?5seek?$AA@ 000000018001ce88     LIBCMT:syserr.obj
 0002:00001e98       ??_C@_0BG@DDBFNKBH@Read?9only?5file?5system?$AA@ 000000018001ce98     LIBCMT:syserr.obj
 0002:00001eb0       ??_C@_0P@PKCJJLLM@Too?5many?5links?$AA@ 000000018001ceb0     LIBCMT:syserr.obj
 0002:00001ec0       ??_C@_0M@LHEPIIOM@Broken?5pipe?$AA@ 000000018001cec0     LIBCMT:syserr.obj
 0002:00001ed0       ??_C@_0N@MMJPGLJK@Domain?5error?$AA@ 000000018001ced0     LIBCMT:syserr.obj
 0002:00001ee0       ??_C@_0BB@FCBJFCAJ@Result?5too?5large?$AA@ 000000018001cee0     LIBCMT:syserr.obj
 0002:00001ef8       ??_C@_0BK@JAEBMJJM@Resource?5deadlock?5avoided?$AA@ 000000018001cef8     LIBCMT:syserr.obj
 0002:00001f18       ??_C@_0BC@BEDIHIDK@Filename?5too?5long?$AA@ 000000018001cf18     LIBCMT:syserr.obj
 0002:00001f30       ??_C@_0BD@CLHBCGPB@No?5locks?5available?$AA@ 000000018001cf30     LIBCMT:syserr.obj
 0002:00001f48       ??_C@_0BJ@IHEHINLI@Function?5not?5implemented?$AA@ 000000018001cf48     LIBCMT:syserr.obj
 0002:00001f68       ??_C@_0BE@ICMCHPHH@Directory?5not?5empty?$AA@ 000000018001cf68     LIBCMT:syserr.obj
 0002:00001f80       ??_C@_0BG@KLEAJEFJ@Illegal?5byte?5sequence?$AA@ 000000018001cf80     LIBCMT:syserr.obj
 0002:00002110       ??_C@_1FK@PGACCAFB@?$AAR?$AA6?$AA0?$AA0?$AA2?$AA?$AN?$AA?6?$AA?9?$AA?5?$AAf?$AAl?$AAo?$AAa?$AAt?$AAi?$AAn?$AAg?$AA?5?$AAp?$AAo?$AAi?$AAn?$AAt?$AA?5?$AAs?$AAu?$AAp?$AAp?$AAo?$AAr?$AAt?$AA?5@ 000000018001d110     LIBCMT:crt0msg.obj
 0002:00002170       ??_C@_1FE@LLNEDJMD@?$AAR?$AA6?$AA0?$AA0?$AA8?$AA?$AN?$AA?6?$AA?9?$AA?5?$AAn?$AAo?$AAt?$AA?5?$AAe?$AAn?$AAo?$AAu?$AAg?$AAh?$AA?5?$AAs?$AAp?$AAa?$AAc?$AAe?$AA?5?$AAf?$AAo?$AAr?$AA?5?$AAa?$AAr@ 000000018001d170     LIBCMT:crt0msg.obj
 0002:000021d0       ??_C@_1FI@HONFMGBI@?$AAR?$AA6?$AA0?$AA0?$AA9?$AA?$AN?$AA?6?$AA?9?$AA?5?$AAn?$AAo?$AAt?$AA?5?$AAe?$AAn?$AAo?$AAu?$AAg?$AAh?$AA?5?$AAs?$AAp?$AAa?$AAc?$AAe?$AA?5?$AAf?$AAo?$AAr?$AA?5?$AAe?$AAn@ 000000018001d1d0     LIBCMT:crt0msg.obj
 0002:00002230       ??_C@_1EG@BEHAGFJD@?$AAR?$AA6?$AA0?$AA1?$AA0?$AA?$AN?$AA?6?$AA?9?$AA?5?$AAa?$AAb?$AAo?$AAr?$AAt?$AA?$CI?$AA?$CJ?$AA?5?$AAh?$AAa?$AAs?$AA?5?$AAb?$AAe?$AAe?$AAn?$AA?5?$AAc?$AAa?$AAl?$AAl?$AAe?$AAd@ 000000018001d230     LIBCMT:crt0msg.obj
 0002:00002280       ??_C@_1FI@LOGNIKDM@?$AAR?$AA6?$AA0?$AA1?$AA6?$AA?$AN?$AA?6?$AA?9?$AA?5?$AAn?$AAo?$AAt?$AA?5?$AAe?$AAn?$AAo?$AAu?$AAg?$AAh?$AA?5?$AAs?$AAp?$AAa?$AAc?$AAe?$AA?5?$AAf?$AAo?$AAr?$AA?5?$AAt?$AAh@ 000000018001d280     LIBCMT:crt0msg.obj
 0002:000022e0       ??_C@_1FK@BEOGODMC@?$AAR?$AA6?$AA0?$AA1?$AA7?$AA?$AN?$AA?6?$AA?9?$AA?5?$AAu?$AAn?$AAe?$AAx?$AAp?$AAe?$AAc?$AAt?$AAe?$AAd?$AA?5?$AAm?$AAu?$AAl?$AAt?$AAi?$AAt?$AAh?$AAr?$AAe?$AAa?$AAd?$AA?5@ 000000018001d2e0     LIBCMT:crt0msg.obj
 0002:00002340       ??_C@_1EC@JIBHAOPH@?$AAR?$AA6?$AA0?$AA1?$AA8?$AA?$AN?$AA?6?$AA?9?$AA?5?$AAu?$AAn?$AAe?$AAx?$AAp?$AAe?$AAc?$AAt?$AAe?$AAd?$AA?5?$AAh?$AAe?$AAa?$AAp?$AA?5?$AAe?$AAr?$AAr?$AAo?$AAr?$AA?$AN?$AA?6@ 000000018001d340     LIBCMT:crt0msg.obj
 0002:00002390       ??_C@_1FC@ECHBIFBC@?$AAR?$AA6?$AA0?$AA1?$AA9?$AA?$AN?$AA?6?$AA?9?$AA?5?$AAu?$AAn?$AAa?$AAb?$AAl?$AAe?$AA?5?$AAt?$AAo?$AA?5?$AAo?$AAp?$AAe?$AAn?$AA?5?$AAc?$AAo?$AAn?$AAs?$AAo?$AAl?$AAe?$AA?5@ 000000018001d390     LIBCMT:crt0msg.obj
 0002:000023f0       ??_C@_1GK@FHCKBEFA@?$AAR?$AA6?$AA0?$AA2?$AA4?$AA?$AN?$AA?6?$AA?9?$AA?5?$AAn?$AAo?$AAt?$AA?5?$AAe?$AAn?$AAo?$AAu?$AAg?$AAh?$AA?5?$AAs?$AAp?$AAa?$AAc?$AAe?$AA?5?$AAf?$AAo?$AAr?$AA?5?$AA_?$AAo@ 000000018001d3f0     LIBCMT:crt0msg.obj
 0002:00002460       ??_C@_1EM@MAADIHMB@?$AAR?$AA6?$AA0?$AA2?$AA5?$AA?$AN?$AA?6?$AA?9?$AA?5?$AAp?$AAu?$AAr?$AAe?$AA?5?$AAv?$AAi?$AAr?$AAt?$AAu?$AAa?$AAl?$AA?5?$AAf?$AAu?$AAn?$AAc?$AAt?$AAi?$AAo?$AAn?$AA?5?$AAc@ 000000018001d460     LIBCMT:crt0msg.obj
 0002:000024b0       ??_C@_1GK@MCAAGJMO@?$AAR?$AA6?$AA0?$AA2?$AA6?$AA?$AN?$AA?6?$AA?9?$AA?5?$AAn?$AAo?$AAt?$AA?5?$AAe?$AAn?$AAo?$AAu?$AAg?$AAh?$AA?5?$AAs?$AAp?$AAa?$AAc?$AAe?$AA?5?$AAf?$AAo?$AAr?$AA?5?$AAs?$AAt@ 000000018001d4b0     LIBCMT:crt0msg.obj
 0002:00002520       ??_C@_1GK@MFGOKLAG@?$AAR?$AA6?$AA0?$AA2?$AA7?$AA?$AN?$AA?6?$AA?9?$AA?5?$AAn?$AAo?$AAt?$AA?5?$AAe?$AAn?$AAo?$AAu?$AAg?$AAh?$AA?5?$AAs?$AAp?$AAa?$AAc?$AAe?$AA?5?$AAf?$AAo?$AAr?$AA?5?$AAl?$AAo@ 000000018001d520     LIBCMT:crt0msg.obj
 0002:00002590       ??_C@_1EK@HHFLMAOL@?$AAR?$AA6?$AA0?$AA2?$AA8?$AA?$AN?$AA?6?$AA?9?$AA?5?$AAu?$AAn?$AAa?$AAb?$AAl?$AAe?$AA?5?$AAt?$AAo?$AA?5?$AAi?$AAn?$AAi?$AAt?$AAi?$AAa?$AAl?$AAi?$AAz?$AAe?$AA?5?$AAh?$AAe@ 000000018001d590     LIBCMT:crt0msg.obj
 0002:000025e0       ??_C@_1DO@BMFCDCD@?$AAR?$AA6?$AA0?$AA3?$AA0?$AA?$AN?$AA?6?$AA?9?$AA?5?$AAC?$AAR?$AAT?$AA?5?$AAn?$AAo?$AAt?$AA?5?$AAi?$AAn?$AAi?$AAt?$AAi?$AAa?$AAl?$AAi?$AAz?$AAe?$AAd?$AA?$AN?$AA?6?$AA?$AA@ 000000018001d5e0     LIBCMT:crt0msg.obj
 0002:00002620       ??_C@_1MG@ENCOOIDF@?$AAR?$AA6?$AA0?$AA3?$AA1?$AA?$AN?$AA?6?$AA?9?$AA?5?$AAA?$AAt?$AAt?$AAe?$AAm?$AAp?$AAt?$AA?5?$AAt?$AAo?$AA?5?$AAi?$AAn?$AAi?$AAt?$AAi?$AAa?$AAl?$AAi?$AAz?$AAe?$AA?5?$AAt@ 000000018001d620     LIBCMT:crt0msg.obj
 0002:000026f0       ??_C@_1GG@GOPILAJP@?$AAR?$AA6?$AA0?$AA3?$AA2?$AA?$AN?$AA?6?$AA?9?$AA?5?$AAn?$AAo?$AAt?$AA?5?$AAe?$AAn?$AAo?$AAu?$AAg?$AAh?$AA?5?$AAs?$AAp?$AAa?$AAc?$AAe?$AA?5?$AAf?$AAo?$AAr?$AA?5?$AAl?$AAo@ 000000018001d6f0     LIBCMT:crt0msg.obj
 0002:00002760       ??_C@_1BOO@KGEDBGAJ@?$AAR?$AA6?$AA0?$AA3?$AA3?$AA?$AN?$AA?6?$AA?9?$AA?5?$AAA?$AAt?$AAt?$AAe?$AAm?$AAp?$AAt?$AA?5?$AAt?$AAo?$AA?5?$AAu?$AAs?$AAe?$AA?5?$AAM?$AAS?$AAI?$AAL?$AA?5?$AAc?$AAo?$AAd@ 000000018001d760     LIBCMT:crt0msg.obj
 0002:00002950       ??_C@_1GG@MKFPEKFO@?$AAR?$AA6?$AA0?$AA3?$AA4?$AA?$AN?$AA?6?$AA?9?$AA?5?$AAi?$AAn?$AAc?$AAo?$AAn?$AAs?$AAi?$AAs?$AAt?$AAe?$AAn?$AAt?$AA?5?$AAo?$AAn?$AAe?$AAx?$AAi?$AAt?$AA?5?$AAb?$AAe?$AAg@ 000000018001d950     LIBCMT:crt0msg.obj
 0002:000029b8       ??_C@_1BO@BFCDCGC@?$AAD?$AAO?$AAM?$AAA?$AAI?$AAN?$AA?5?$AAe?$AAr?$AAr?$AAo?$AAr?$AA?$AN?$AA?6?$AA?$AA@ 000000018001d9b8     LIBCMT:crt0msg.obj
 0002:000029d8       ??_C@_1BK@KMOMNAAI@?$AAS?$AAI?$AAN?$AAG?$AA?5?$AAe?$AAr?$AAr?$AAo?$AAr?$AA?$AN?$AA?6?$AA?$AA@ 000000018001d9d8     LIBCMT:crt0msg.obj
 0002:000029f8       ??_C@_1BM@JBBEPPHI@?$AAT?$AAL?$AAO?$AAS?$AAS?$AA?5?$AAe?$AAr?$AAr?$AAo?$AAr?$AA?$AN?$AA?6?$AA?$AA@ 000000018001d9f8     LIBCMT:crt0msg.obj
 0002:00002a14       ??_C@_15JNBOKNOG@?$AA?$AN?$AA?6?$AA?$AA@ 000000018001da14     LIBCMT:crt0msg.obj
 0002:00002a20       ??_C@_1BO@BKOMIGKJ@?$AAr?$AAu?$AAn?$AAt?$AAi?$AAm?$AAe?$AA?5?$AAe?$AAr?$AAr?$AAo?$AAr?$AA?5?$AA?$AA@ 000000018001da20     LIBCMT:crt0msg.obj
 0002:00002a40       ??_C@_1DE@JNGNBFGO@?$AAR?$AAu?$AAn?$AAt?$AAi?$AAm?$AAe?$AA?5?$AAE?$AAr?$AAr?$AAo?$AAr?$AA?$CB?$AA?6?$AA?6?$AAP?$AAr?$AAo?$AAg?$AAr?$AAa?$AAm?$AA?3?$AA?5?$AA?$AA@ 000000018001da40     LIBCMT:crt0msg.obj
 0002:00002a78       ??_C@_1BG@GOEBHBDC@?$AAU?$AAS?$AAE?$AAR?$AA3?$AA2?$AA?4?$AAD?$AAL?$AAL?$AA?$AA@ 000000018001da78     LIBCMT:crtmboxw.obj
 0002:00002a90       ??_C@_0M@DLDCCGNP@MessageBoxW?$AA@ 000000018001da90     LIBCMT:crtmboxw.obj
 0002:00002aa0       ??_C@_0BA@HNOPNCHB@GetActiveWindow?$AA@ 000000018001daa0     LIBCMT:crtmboxw.obj
 0002:00002ab0       ??_C@_0BD@HHGDFDBJ@GetLastActivePopup?$AA@ 000000018001dab0     LIBCMT:crtmboxw.obj
 0002:00002ac8       ??_C@_0BK@DEKFELLI@GetUserObjectInformationW?$AA@ 000000018001dac8     LIBCMT:crtmboxw.obj
 0002:00002ae8       ??_C@_0BI@DFKBFLJE@GetProcessWindowStation?$AA@ 000000018001dae8     LIBCMT:crtmboxw.obj
 0002:00002b00       ??_C@_1BK@MGMFAEKH@?$AAk?$AAe?$AAr?$AAn?$AAe?$AAl?$AA3?$AA2?$AA?4?$AAd?$AAl?$AAl?$AA?$AA@ 000000018001db00     LIBCMT:winapisupp.obj
 0002:00002b20       ??_C@_08KNHFBNJ@FlsAlloc?$AA@ 000000018001db20     LIBCMT:winapisupp.obj
 0002:00002b30       ??_C@_07PEJMOBNF@FlsFree?$AA@ 000000018001db30     LIBCMT:winapisupp.obj
 0002:00002b38       ??_C@_0M@GDNOONDI@FlsGetValue?$AA@ 000000018001db38     LIBCMT:winapisupp.obj
 0002:00002b48       ??_C@_0M@JCPCPOEF@FlsSetValue?$AA@ 000000018001db48     LIBCMT:winapisupp.obj
 0002:00002b58       ??_C@_0BM@HCFOFFN@InitializeCriticalSectionEx?$AA@ 000000018001db58     LIBCMT:winapisupp.obj
 0002:00002b78       ??_C@_0P@DLHPPCNH@CreateEventExW?$AA@ 000000018001db78     LIBCMT:winapisupp.obj
 0002:00002b88       ??_C@_0BD@KIEEOEEH@CreateSemaphoreExW?$AA@ 000000018001db88     LIBCMT:winapisupp.obj
 0002:00002ba0       ??_C@_0BI@BKLFFAPO@SetThreadStackGuarantee?$AA@ 000000018001dba0     LIBCMT:winapisupp.obj
 0002:00002bb8       ??_C@_0BG@OGFAJCKC@CreateThreadpoolTimer?$AA@ 000000018001dbb8     LIBCMT:winapisupp.obj
 0002:00002bd0       ??_C@_0BD@LPLEMMDI@SetThreadpoolTimer?$AA@ 000000018001dbd0     LIBCMT:winapisupp.obj
 0002:00002be8       ??_C@_0CA@FMNJENH@WaitForThreadpoolTimerCallbacks?$AA@ 000000018001dbe8     LIBCMT:winapisupp.obj
 0002:00002c08       ??_C@_0BF@DCFCCNOC@CloseThreadpoolTimer?$AA@ 000000018001dc08     LIBCMT:winapisupp.obj
 0002:00002c20       ??_C@_0BF@FLABGKKM@CreateThreadpoolWait?$AA@ 000000018001dc20     LIBCMT:winapisupp.obj
 0002:00002c38       ??_C@_0BC@MGCOHNA@SetThreadpoolWait?$AA@ 000000018001dc38     LIBCMT:winapisupp.obj
 0002:00002c50       ??_C@_0BE@OCIOMIMP@CloseThreadpoolWait?$AA@ 000000018001dc50     LIBCMT:winapisupp.obj
 0002:00002c68       ??_C@_0BJ@LKGHFHBO@FlushProcessWriteBuffers?$AA@ 000000018001dc68     LIBCMT:winapisupp.obj
 0002:00002c88       ??_C@_0BP@KALKKPMO@FreeLibraryWhenCallbackReturns?$AA@ 000000018001dc88     LIBCMT:winapisupp.obj
 0002:00002ca8       ??_C@_0BK@DFNBACLA@GetCurrentProcessorNumber?$AA@ 000000018001dca8     LIBCMT:winapisupp.obj
 0002:00002cc8       ??_C@_0BP@KHGALBC@GetLogicalProcessorInformation?$AA@ 000000018001dcc8     LIBCMT:winapisupp.obj
 0002:00002ce8       ??_C@_0BE@FKKLLFLM@CreateSymbolicLinkW?$AA@ 000000018001dce8     LIBCMT:winapisupp.obj
 0002:00002d00       ??_C@_0BJ@OHNKDLIJ@SetDefaultDllDirectories?$AA@ 000000018001dd00     LIBCMT:winapisupp.obj
 0002:00002d20       ??_C@_0BE@LJANKFHF@EnumSystemLocalesEx?$AA@ 000000018001dd20     LIBCMT:winapisupp.obj
 0002:00002d38       ??_C@_0BA@IHGNDAEB@CompareStringEx?$AA@ 000000018001dd38     LIBCMT:winapisupp.obj
 0002:00002d48       ??_C@_0BA@EPCJIIPD@GetDateFormatEx?$AA@ 000000018001dd48     LIBCMT:winapisupp.obj
 0002:00002d58       ??_C@_0BA@ONOKGCMP@GetLocaleInfoEx?$AA@ 000000018001dd58     LIBCMT:winapisupp.obj
 0002:00002d68       ??_C@_0BA@CIJJKCJJ@GetTimeFormatEx?$AA@ 000000018001dd68     LIBCMT:winapisupp.obj
 0002:00002d78       ??_C@_0BJ@PBCCBIPI@GetUserDefaultLocaleName?$AA@ 000000018001dd78     LIBCMT:winapisupp.obj
 0002:00002d98       ??_C@_0BC@CELBKLLA@IsValidLocaleName?$AA@ 000000018001dd98     LIBCMT:winapisupp.obj
 0002:00002db0       ??_C@_0O@KKBNKAPF@LCMapStringEx?$AA@ 000000018001ddb0     LIBCMT:winapisupp.obj
 0002:00002dc0       ??_C@_0BE@JOGNEJCI@GetCurrentPackageId?$AA@ 000000018001ddc0     LIBCMT:winapisupp.obj
 0002:00002dd8       ??_C@_0P@CDHHOHKP@GetTickCount64?$AA@ 000000018001ddd8     LIBCMT:winapisupp.obj
 0002:00002de8       ??_C@_0BO@KPCLFDJJ@GetFileInformationByHandleExW?$AA@ 000000018001dde8     LIBCMT:winapisupp.obj
 0002:00002e08       ??_C@_0BM@MHIDLABK@SetFileInformationByHandleW?$AA@ 000000018001de08     LIBCMT:winapisupp.obj
 0002:00002e48       ??_C@_1M@HPNHIDJI@?$AAj?$AAa?$AA?9?$AAJ?$AAP?$AA?$AA@ 000000018001de48     LIBCMT:mbctype.obj
 0002:00002e58       ??_C@_1M@BIBDDEMK@?$AAz?$AAh?$AA?9?$AAC?$AAN?$AA?$AA@ 000000018001de58     LIBCMT:mbctype.obj
 0002:00002e68       ??_C@_1M@JLOOOEGK@?$AAk?$AAo?$AA?9?$AAK?$AAR?$AA?$AA@ 000000018001de68     LIBCMT:mbctype.obj
 0002:00002e78       ??_C@_1M@CLNBBOPM@?$AAz?$AAh?$AA?9?$AAT?$AAW?$AA?$AA@ 000000018001de78     LIBCMT:mbctype.obj
 0002:00002e84       ??_C@_03KOEHGMDN@Sun?$AA@  000000018001de84     LIBCMT:nlsdata.obj
 0002:00002e88       ??_C@_03PDAGKDH@Mon?$AA@   000000018001de88     LIBCMT:nlsdata.obj
 0002:00002e8c       ??_C@_03NAGEINEP@Tue?$AA@  000000018001de8c     LIBCMT:nlsdata.obj
 0002:00002e90       ??_C@_03MHOMLAJA@Wed?$AA@  000000018001de90     LIBCMT:nlsdata.obj
 0002:00002e94       ??_C@_03IOFIKPDN@Thu?$AA@  000000018001de94     LIBCMT:nlsdata.obj
 0002:00002e98       ??_C@_03IDIOELNC@Fri?$AA@  000000018001de98     LIBCMT:nlsdata.obj
 0002:00002e9c       ??_C@_03FEFJNEK@Sat?$AA@   000000018001de9c     LIBCMT:nlsdata.obj
 0002:00002ea0       ??_C@_06OOPIFAJ@Sunday?$AA@ 000000018001dea0     LIBCMT:nlsdata.obj
 0002:00002ea8       ??_C@_06JLEDEDGH@Monday?$AA@ 000000018001dea8     LIBCMT:nlsdata.obj
 0002:00002eb0       ??_C@_07BAAGCFCM@Tuesday?$AA@ 000000018001deb0     LIBCMT:nlsdata.obj
 0002:00002eb8       ??_C@_09DLIGFAKA@Wednesday?$AA@ 000000018001deb8     LIBCMT:nlsdata.obj
 0002:00002ec8       ??_C@_08HACCIKIA@Thursday?$AA@ 000000018001dec8     LIBCMT:nlsdata.obj
 0002:00002ed4       ??_C@_06JECMNKMI@Friday?$AA@ 000000018001ded4     LIBCMT:nlsdata.obj
 0002:00002ee0       ??_C@_08INBOOONO@Saturday?$AA@ 000000018001dee0     LIBCMT:nlsdata.obj
 0002:00002eec       ??_C@_03JIHJHPIE@Jan?$AA@  000000018001deec     LIBCMT:nlsdata.obj
 0002:00002ef0       ??_C@_03HJBDCHOM@Feb?$AA@  000000018001def0     LIBCMT:nlsdata.obj
 0002:00002ef4       ??_C@_03ODNJBKGA@Mar?$AA@  000000018001def4     LIBCMT:nlsdata.obj
 0002:00002ef8       ??_C@_03LEOLGMJP@Apr?$AA@  000000018001def8     LIBCMT:nlsdata.obj
 0002:00002efc       ??_C@_03CNMDKL@May?$AA@    000000018001defc     LIBCMT:nlsdata.obj
 0002:00002f00       ??_C@_03IDFGHECI@Jun?$AA@  000000018001df00     LIBCMT:nlsdata.obj
 0002:00002f04       ??_C@_03LBGABGKK@Jul?$AA@  000000018001df04     LIBCMT:nlsdata.obj
 0002:00002f08       ??_C@_03IFJFEIGA@Aug?$AA@  000000018001df08     LIBCMT:nlsdata.obj
 0002:00002f0c       ??_C@_03GGCAPAJC@Sep?$AA@  000000018001df0c     LIBCMT:nlsdata.obj
 0002:00002f10       ??_C@_03BMAOKBAD@Oct?$AA@  000000018001df10     LIBCMT:nlsdata.obj
 0002:00002f14       ??_C@_03JPJOFNIA@Nov?$AA@  000000018001df14     LIBCMT:nlsdata.obj
 0002:00002f18       ??_C@_03MKABNOCG@Dec?$AA@  000000018001df18     LIBCMT:nlsdata.obj
 0002:00002f20       ??_C@_07CGJPFGJA@January?$AA@ 000000018001df20     LIBCMT:nlsdata.obj
 0002:00002f28       ??_C@_08GNJGEPFN@February?$AA@ 000000018001df28     LIBCMT:nlsdata.obj
 0002:00002f34       ??_C@_05HPCKOFNC@March?$AA@ 000000018001df34     LIBCMT:nlsdata.obj
 0002:00002f3c       ??_C@_05DMJDNLEJ@April?$AA@ 000000018001df3c     LIBCMT:nlsdata.obj
 0002:00002f44       ??_C@_04CNLMGBGM@June?$AA@ 000000018001df44     LIBCMT:nlsdata.obj
 0002:00002f4c       ??_C@_04MIEPOIFP@July?$AA@ 000000018001df4c     LIBCMT:nlsdata.obj
 0002:00002f54       ??_C@_06LBBHFDDG@August?$AA@ 000000018001df54     LIBCMT:nlsdata.obj
 0002:00002f60       ??_C@_09BHHEALKD@September?$AA@ 000000018001df60     LIBCMT:nlsdata.obj
 0002:00002f70       ??_C@_07JJNFCEND@October?$AA@ 000000018001df70     LIBCMT:nlsdata.obj
 0002:00002f78       ??_C@_08HCHEGEOA@November?$AA@ 000000018001df78     LIBCMT:nlsdata.obj
 0002:00002f88       ??_C@_08EDHMEBNP@December?$AA@ 000000018001df88     LIBCMT:nlsdata.obj
 0002:00002f94       ??_C@_02DEDBPAFC@AM?$AA@   000000018001df94     LIBCMT:nlsdata.obj
 0002:00002f98       ??_C@_02CJNFDJBF@PM?$AA@   000000018001df98     LIBCMT:nlsdata.obj
 0002:00002fa0       ??_C@_08BPBNCDIB@MM?1dd?1yy?$AA@ 000000018001dfa0     LIBCMT:nlsdata.obj
 0002:00002fb0       ??_C@_0BE@CKGJFCPC@dddd?0?5MMMM?5dd?0?5yyyy?$AA@ 000000018001dfb0     LIBCMT:nlsdata.obj
 0002:00002fc8       ??_C@_08JCCMCCIL@HH?3mm?3ss?$AA@ 000000018001dfc8     LIBCMT:nlsdata.obj
 0002:00002fd8       ??_C@_17MBGCMIPB@?$AAS?$AAu?$AAn?$AA?$AA@ 000000018001dfd8     LIBCMT:nlsdata.obj
 0002:00002fe0       ??_C@_17KBOMKBF@?$AAM?$AAo?$AAn?$AA?$AA@ 000000018001dfe0     LIBCMT:nlsdata.obj
 0002:00002fe8       ??_C@_17BMKGEGOJ@?$AAT?$AAu?$AAe?$AA?$AA@ 000000018001dfe8     LIBCMT:nlsdata.obj
 0002:00002ff0       ??_C@_17CJEDCEPE@?$AAW?$AAe?$AAd?$AA?$AA@ 000000018001dff0     LIBCMT:nlsdata.obj
 0002:00002ff8       ??_C@_17PDPHAADD@?$AAT?$AAh?$AAu?$AA?$AA@ 000000018001dff8     LIBCMT:nlsdata.obj
 0002:00003000       ??_C@_17HFOLPPLP@?$AAF?$AAr?$AAi?$AA?$AA@ 000000018001e000     LIBCMT:nlsdata.obj
 0002:00003008       ??_C@_17GGIBDPIH@?$AAS?$AAa?$AAt?$AA?$AA@ 000000018001e008     LIBCMT:nlsdata.obj
 0002:00003010       ??_C@_1O@IHNHDHPB@?$AAS?$AAu?$AAn?$AAd?$AAa?$AAy?$AA?$AA@ 000000018001e010     LIBCMT:nlsdata.obj
 0002:00003020       ??_C@_1O@MMNBFLIA@?$AAM?$AAo?$AAn?$AAd?$AAa?$AAy?$AA?$AA@ 000000018001e020     LIBCMT:nlsdata.obj
 0002:00003030       ??_C@_1BA@ENFBFFEK@?$AAT?$AAu?$AAe?$AAs?$AAd?$AAa?$AAy?$AA?$AA@ 000000018001e030     LIBCMT:nlsdata.obj
 0002:00003040       ??_C@_1BE@EBOGMDOH@?$AAW?$AAe?$AAd?$AAn?$AAe?$AAs?$AAd?$AAa?$AAy?$AA?$AA@ 000000018001e040     LIBCMT:nlsdata.obj
 0002:00003058       ??_C@_1BC@HHMNLIHE@?$AAT?$AAh?$AAu?$AAr?$AAs?$AAd?$AAa?$AAy?$AA?$AA@ 000000018001e058     LIBCMT:nlsdata.obj
 0002:00003070       ??_C@_1O@PDICJHAG@?$AAF?$AAr?$AAi?$AAd?$AAa?$AAy?$AA?$AA@ 000000018001e070     LIBCMT:nlsdata.obj
 0002:00003080       ??_C@_1BC@ENMNNPAJ@?$AAS?$AAa?$AAt?$AAu?$AAr?$AAd?$AAa?$AAy?$AA?$AA@ 000000018001e080     LIBCMT:nlsdata.obj
 0002:00003098       ??_C@_17DKNBKCHM@?$AAJ?$AAa?$AAn?$AA?$AA@ 000000018001e098     LIBCMT:nlsdata.obj
 0002:000030a0       ??_C@_17LMDJEKJN@?$AAF?$AAe?$AAb?$AA?$AA@ 000000018001e0a0     LIBCMT:nlsdata.obj
 0002:000030a8       ??_C@_17CKNLEDEC@?$AAM?$AAa?$AAr?$AA?$AA@ 000000018001e0a8     LIBCMT:nlsdata.obj
 0002:000030b0       ??_C@_17LFPOIHDD@?$AAA?$AAp?$AAr?$AA?$AA@ 000000018001e0b0     LIBCMT:nlsdata.obj
 0002:000030b8       ??_C@_17PNNKMEED@?$AAM?$AAa?$AAy?$AA?$AA@ 000000018001e0b8     LIBCMT:nlsdata.obj
 0002:000030c0       ??_C@_17KCJGOCPB@?$AAJ?$AAu?$AAn?$AA?$AA@ 000000018001e0c0     LIBCMT:nlsdata.obj
 0002:000030c8       ??_C@_17IJPCKHK@?$AAJ?$AAu?$AAl?$AA?$AA@ 000000018001e0c8     LIBCMT:nlsdata.obj
 0002:000030d0       ??_C@_17ICPELBCN@?$AAA?$AAu?$AAg?$AA?$AA@ 000000018001e0d0     LIBCMT:nlsdata.obj
 0002:000030d8       ??_C@_17HCHCOKMG@?$AAS?$AAe?$AAp?$AA?$AA@ 000000018001e0d8     LIBCMT:nlsdata.obj
 0002:000030e0       ??_C@_17FNLKOI@?$AAO?$AAc?$AAt?$AA?$AA@ 000000018001e0e0     LIBCMT:nlsdata.obj
 0002:000030e8       ??_C@_17BBDMLCIG@?$AAN?$AAo?$AAv?$AA?$AA@ 000000018001e0e8     LIBCMT:nlsdata.obj
 0002:000030f0       ??_C@_17EGKACKIF@?$AAD?$AAe?$AAc?$AA?$AA@ 000000018001e0f0     LIBCMT:nlsdata.obj
 0002:000030f8       ??_C@_1BA@EFMEIEBA@?$AAJ?$AAa?$AAn?$AAu?$AAa?$AAr?$AAy?$AA?$AA@ 000000018001e0f8     LIBCMT:nlsdata.obj
 0002:00003108       ??_C@_1BC@JGDDFFAM@?$AAF?$AAe?$AAb?$AAr?$AAu?$AAa?$AAr?$AAy?$AA?$AA@ 000000018001e108     LIBCMT:nlsdata.obj
 0002:00003120       ??_C@_1M@IKEENEDF@?$AAM?$AAa?$AAr?$AAc?$AAh?$AA?$AA@ 000000018001e120     LIBCMT:nlsdata.obj
 0002:00003130       ??_C@_1M@GJNLMHFD@?$AAA?$AAp?$AAr?$AAi?$AAl?$AA?$AA@ 000000018001e130     LIBCMT:nlsdata.obj
 0002:00003140       ??_C@_19EPFLPGAP@?$AAJ?$AAu?$AAn?$AAe?$AA?$AA@ 000000018001e140     LIBCMT:nlsdata.obj
 0002:00003150       ??_C@_19BIFMLPCD@?$AAJ?$AAu?$AAl?$AAy?$AA?$AA@ 000000018001e150     LIBCMT:nlsdata.obj
 0002:00003160       ??_C@_1O@PAHLKOAC@?$AAA?$AAu?$AAg?$AAu?$AAs?$AAt?$AA?$AA@ 000000018001e160     LIBCMT:nlsdata.obj
 0002:00003170       ??_C@_1BE@DKAAMBJL@?$AAS?$AAe?$AAp?$AAt?$AAe?$AAm?$AAb?$AAe?$AAr?$AA?$AA@ 000000018001e170     LIBCMT:nlsdata.obj
 0002:00003188       ??_C@_1BA@EPANDLNG@?$AAO?$AAc?$AAt?$AAo?$AAb?$AAe?$AAr?$AA?$AA@ 000000018001e188     LIBCMT:nlsdata.obj
 0002:00003198       ??_C@_1BC@BGLIFPF@?$AAN?$AAo?$AAv?$AAe?$AAm?$AAb?$AAe?$AAr?$AA?$AA@ 000000018001e198     LIBCMT:nlsdata.obj
 0002:000031b0       ??_C@_1BC@FEMKIFH@?$AAD?$AAe?$AAc?$AAe?$AAm?$AAb?$AAe?$AAr?$AA?$AA@ 000000018001e1b0     LIBCMT:nlsdata.obj
 0002:000031c4       ??_C@_15ODEHAHHF@?$AAA?$AAM?$AA?$AA@ 000000018001e1c4     LIBCMT:nlsdata.obj
 0002:000031cc       ??_C@_15CLMNNGEL@?$AAP?$AAM?$AA?$AA@ 000000018001e1cc     LIBCMT:nlsdata.obj
 0002:000031d8       ??_C@_1BC@IEBCMHCM@?$AAM?$AAM?$AA?1?$AAd?$AAd?$AA?1?$AAy?$AAy?$AA?$AA@ 000000018001e1d8     LIBCMT:nlsdata.obj
 0002:000031f0       ??_C@_1CI@KNAKOEBC@?$AAd?$AAd?$AAd?$AAd?$AA?0?$AA?5?$AAM?$AAM?$AAM?$AAM?$AA?5?$AAd?$AAd?$AA?0?$AA?5?$AAy?$AAy?$AAy?$AAy?$AA?$AA@ 000000018001e1f0     LIBCMT:nlsdata.obj
 0002:00003218       ??_C@_1BC@GDGBMEMK@?$AAH?$AAH?$AA?3?$AAm?$AAm?$AA?3?$AAs?$AAs?$AA?$AA@ 000000018001e218     LIBCMT:nlsdata.obj
 0002:00003230       ??_C@_1M@BMHNFIME@?$AAe?$AAn?$AA?9?$AAU?$AAS?$AA?$AA@ 000000018001e230     LIBCMT:nlsdata.obj
 0002:000032c0       _XcptActTab                000000018001e2c0     LIBCMT:winxfltr.obj
 0002:00003380       _XcptActTabCount           000000018001e380     LIBCMT:winxfltr.obj
 0002:00003384       _XcptActTabSize            000000018001e384     LIBCMT:winxfltr.obj
 0002:00003388       _First_FPE_Indx            000000018001e388     LIBCMT:winxfltr.obj
 0002:0000338c       _Num_FPE                   000000018001e38c     LIBCMT:winxfltr.obj
 0002:00003390       _pDestructExceptionObject  000000018001e390     LIBCMT:frame.obj
 0002:000033a0       ??_7bad_exception@std@@6B@ 000000018001e3a0     LIBCMT:frame.obj
 0002:000033b0       ??_C@_0O@DPKOEFFH@bad?5exception?$AA@ 000000018001e3b0     LIBCMT:frame.obj
 0002:000033c0       ??_C@_05KLBDPFGC@e?$CL000?$AA@ 000000018001e3c0     LIBCMT:cvt.obj
 0002:000033c8       __real@0000000000000000    000000018001e3c8     LIBCMT:cvt.obj
 0002:000033d0       __lookuptable_s            000000018001e3d0     LIBCMT:outputs.obj
 0002:00003430       LcidToLocaleNameTable      000000018001e430     LIBCMT:winapinls.obj
 0002:00004270       LocaleNameToIndexTable     000000018001f270     LIBCMT:winapinls.obj
 0002:000050b0       ??_C@_15EMKDOKLE@?$AAa?$AAr?$AA?$AA@ 00000001800200b0     LIBCMT:winapinls.obj
 0002:000050b8       ??_C@_15KNPADPLH@?$AAb?$AAg?$AA?$AA@ 00000001800200b8     LIBCMT:winapinls.obj
 0002:000050c0       ??_C@_15EDMHLDMO@?$AAc?$AAa?$AA?$AA@ 00000001800200c0     LIBCMT:winapinls.obj
 0002:000050c8       ??_C@_1O@BPEAJADD@?$AAz?$AAh?$AA?9?$AAC?$AAH?$AAS?$AA?$AA@ 00000001800200c8     LIBCMT:winapinls.obj
 0002:000050d8       ??_C@_15LJNHCMNK@?$AAc?$AAs?$AA?$AA@ 00000001800200d8     LIBCMT:winapinls.obj
 0002:000050e0       ??_C@_15FOMCIDHG@?$AAd?$AAa?$AA?$AA@ 00000001800200e0     LIBCMT:winapinls.obj
 0002:000050e8       ??_C@_15NBKABECB@?$AAd?$AAe?$AA?$AA@ 00000001800200e8     LIBCMT:winapinls.obj
 0002:000050f0       ??_C@_15GHPEIIAO@?$AAe?$AAl?$AA?$AA@ 00000001800200f0     LIBCMT:winapinls.obj
 0002:000050f8       ??_C@_15MNPNEAIF@?$AAe?$AAn?$AA?$AA@ 00000001800200f8     LIBCMT:winapinls.obj
 0002:00005100       ??_C@_15GPIOMPMH@?$AAe?$AAs?$AA?$AA@ 0000000180020100     LIBCMT:winapinls.obj
 0002:00005108       ??_C@_15NGLOAKJC@?$AAf?$AAi?$AA?$AA@ 0000000180020108     LIBCMT:winapinls.obj
 0002:00005110       ??_C@_15FBKGNKAM@?$AAf?$AAr?$AA?$AA@ 0000000180020110     LIBCMT:winapinls.obj
 0002:00005118       ??_C@_15KGGCNEFK@?$AAh?$AAe?$AA?$AA@ 0000000180020118     LIBCMT:winapinls.obj
 0002:00005120       ??_C@_15PGHLIDMF@?$AAh?$AAu?$AA?$AA@ 0000000180020120     LIBCMT:winapinls.obj
 0002:00005128       ??_C@_15BIEMAPLM@?$AAi?$AAs?$AA?$AA@ 0000000180020128     LIBCMT:winapinls.obj
 0002:00005130       ??_C@_15IFJLDHAF@?$AAi?$AAt?$AA?$AA@ 0000000180020130     LIBCMT:winapinls.obj
 0002:00005138       ??_C@_15GEMIOCAG@?$AAj?$AAa?$AA?$AA@ 0000000180020138     LIBCMT:winapinls.obj
 0002:00005140       ??_C@_15EPELEGJA@?$AAk?$AAo?$AA?$AA@ 0000000180020140     LIBCMT:winapinls.obj
 0002:00005148       ??_C@_15NDDHIMN@?$AAn?$AAl?$AA?$AA@ 0000000180020148     LIBCMT:winapinls.obj
 0002:00005150       ??_C@_15BPIGNHCD@?$AAn?$AAo?$AA?$AA@ 0000000180020150     LIBCMT:winapinls.obj
 0002:00005158       ??_C@_15DEOPBLCG@?$AAp?$AAl?$AA?$AA@ 0000000180020158     LIBCMT:winapinls.obj
 0002:00005160       ??_C@_15KBECGEFG@?$AAp?$AAt?$AA?$AA@ 0000000180020160     LIBCMT:winapinls.obj
 0002:00005168       ??_C@_15GLJCBFMD@?$AAr?$AAo?$AA?$AA@ 0000000180020168     LIBCMT:winapinls.obj
 0002:00005170       ??_C@_15FEDGKCDI@?$AAr?$AAu?$AA?$AA@ 0000000180020170     LIBCMT:winapinls.obj
 0002:00005178       ??_C@_15GLKMLLHM@?$AAh?$AAr?$AA?$AA@ 0000000180020178     LIBCMT:winapinls.obj
 0002:00005180       ??_C@_15CPKMFBDB@?$AAs?$AAk?$AA?$AA@ 0000000180020180     LIBCMT:winapinls.obj
 0002:00005188       ??_C@_15BAAIOGMK@?$AAs?$AAq?$AA?$AA@ 0000000180020188     LIBCMT:winapinls.obj
 0002:00005190       ??_C@_15INNPNOHD@?$AAs?$AAv?$AA?$AA@ 0000000180020190     LIBCMT:winapinls.obj
 0002:00005198       ??_C@_15CABMMOGH@?$AAt?$AAh?$AA?$AA@ 0000000180020198     LIBCMT:winapinls.obj
 0002:000051a0       ??_C@_15BPLIHJJM@?$AAt?$AAr?$AA?$AA@ 00000001800201a0     LIBCMT:winapinls.obj
 0002:000051a8       ??_C@_15NEOEKKDJ@?$AAu?$AAr?$AA?$AA@ 00000001800201a8     LIBCMT:winapinls.obj
 0002:000051b0       ??_C@_15NFICGAJK@?$AAi?$AAd?$AA?$AA@ 00000001800201b0     LIBCMT:winapinls.obj
 0002:000051b8       ??_C@_15PJPFLCCM@?$AAu?$AAk?$AA?$AA@ 00000001800201b8     LIBCMT:winapinls.obj
 0002:000051c0       ??_C@_15HPJPHDM@?$AAb?$AAe?$AA?$AA@ 00000001800201c0     LIBCMT:winapinls.obj
 0002:000051c8       ??_C@_15LCHLGJII@?$AAs?$AAl?$AA?$AA@ 00000001800201c8     LIBCMT:winapinls.obj
 0002:000051d0       ??_C@_15PCFJPHHO@?$AAe?$AAt?$AA?$AA@ 00000001800201d0     LIBCMT:winapinls.obj
 0002:000051d8       ??_C@_15HPFPGODN@?$AAl?$AAv?$AA?$AA@ 00000001800201d8     LIBCMT:winapinls.obj
 0002:000051e0       ??_C@_15NFFGKGLG@?$AAl?$AAt?$AA?$AA@ 00000001800201e0     LIBCMT:winapinls.obj
 0002:000051e8       ??_C@_15BDAKCCHN@?$AAf?$AAa?$AA?$AA@ 00000001800201e8     LIBCMT:winapinls.obj
 0002:000051f0       ??_C@_15NFGIAIAJ@?$AAv?$AAi?$AA?$AA@ 00000001800201f0     LIBCMT:winapinls.obj
 0002:000051f8       ??_C@_15LMKNDMHN@?$AAh?$AAy?$AA?$AA@ 00000001800201f8     LIBCMT:winapinls.obj
 0002:00005200       ??_C@_15IJBHMCFL@?$AAa?$AAz?$AA?$AA@ 0000000180020200     LIBCMT:winapinls.obj
 0002:00005208       ??_C@_15EKOFJABL@?$AAe?$AAu?$AA?$AA@ 0000000180020208     LIBCMT:winapinls.obj
 0002:00005210       ??_C@_15BGHADCNK@?$AAm?$AAk?$AA?$AA@ 0000000180020210     LIBCMT:winapinls.obj
 0002:00005218       ??_C@_15JDNICKHM@?$AAa?$AAf?$AA?$AA@ 0000000180020218     LIBCMT:winapinls.obj
 0002:00005220       ??_C@_15KPJEDBKD@?$AAk?$AAa?$AA?$AA@ 0000000180020220     LIBCMT:winapinls.obj
 0002:00005228       ??_C@_15PDNFFFEO@?$AAf?$AAo?$AA?$AA@ 0000000180020228     LIBCMT:winapinls.obj
 0002:00005230       ??_C@_15OMLEGLOC@?$AAh?$AAi?$AA?$AA@ 0000000180020230     LIBCMT:winapinls.obj
 0002:00005238       ??_C@_15IDNNENKK@?$AAm?$AAs?$AA?$AA@ 0000000180020238     LIBCMT:winapinls.obj
 0002:00005240       ??_C@_15MACJNBMH@?$AAk?$AAk?$AA?$AA@ 0000000180020240     LIBCMT:winapinls.obj
 0002:00005248       ??_C@_15DKDJEOND@?$AAk?$AAy?$AA?$AA@ 0000000180020248     LIBCMT:winapinls.obj
 0002:00005250       ??_C@_15DFGDLJBG@?$AAs?$AAw?$AA?$AA@ 0000000180020250     LIBCMT:winapinls.obj
 0002:00005258       ??_C@_15BBFAICNG@?$AAu?$AAz?$AA?$AA@ 0000000180020258     LIBCMT:winapinls.obj
 0002:00005260       ??_C@_15DKNDCGEA@?$AAt?$AAt?$AA?$AA@ 0000000180020260     LIBCMT:winapinls.obj
 0002:00005268       ??_C@_15MGIFMDPL@?$AAp?$AAa?$AA?$AA@ 0000000180020268     LIBCMT:winapinls.obj
 0002:00005270       ??_C@_15HCNDBBA@?$AAg?$AAu?$AA?$AA@ 0000000180020270     LIBCMT:winapinls.obj
 0002:00005278       ??_C@_15FNBEIBON@?$AAt?$AAa?$AA?$AA@ 0000000180020278     LIBCMT:winapinls.obj
 0002:00005280       ??_C@_15NCHGBGLK@?$AAt?$AAe?$AA?$AA@ 0000000180020280     LIBCMT:winapinls.obj
 0002:00005288       ??_C@_15PHPHCBPF@?$AAk?$AAn?$AA?$AA@ 0000000180020288     LIBCMT:winapinls.obj
 0002:00005290       ??_C@_15DLGBCKMP@?$AAm?$AAr?$AA?$AA@ 0000000180020290     LIBCMT:winapinls.obj
 0002:00005298       ??_C@_15EABBLBFF@?$AAs?$AAa?$AA?$AA@ 0000000180020298     LIBCMT:winapinls.obj
 0002:000052a0       ??_C@_15CBKOMCOI@?$AAm?$AAn?$AA?$AA@ 00000001800202a0     LIBCMT:winapinls.obj
 0002:000052a8       ??_C@_15CKDMCJAF@?$AAg?$AAl?$AA?$AA@ 00000001800202a8     LIBCMT:winapinls.obj
 0002:000052b0       ??_C@_17CNJFBPG@?$AAk?$AAo?$AAk?$AA?$AA@ 00000001800202b0     LIBCMT:winapinls.obj
 0002:000052b8       ??_C@_17FFBJICPL@?$AAs?$AAy?$AAr?$AA?$AA@ 00000001800202b8     LIBCMT:winapinls.obj
 0002:000052c0       ??_C@_17KPNDCPAF@?$AAd?$AAi?$AAv?$AA?$AA@ 00000001800202c0     LIBCMT:winapinls.obj
 0002:000052c8       ??_C@_11LOCGONAA@?$AA?$AA@ 00000001800202c8     LIBCMT:winapinls.obj
 0002:000052d0       ??_C@_1M@OKAHONE@?$AAa?$AAr?$AA?9?$AAS?$AAA?$AA?$AA@ 00000001800202d0     LIBCMT:winapinls.obj
 0002:000052e0       ??_C@_1M@FFFIGIGK@?$AAb?$AAg?$AA?9?$AAB?$AAG?$AA?$AA@ 00000001800202e0     LIBCMT:winapinls.obj
 0002:000052f0       ??_C@_1M@BJNKEDC@?$AAc?$AAa?$AA?9?$AAE?$AAS?$AA?$AA@ 00000001800202f0     LIBCMT:winapinls.obj
 0002:00005300       ??_C@_1M@IJJHFJHA@?$AAc?$AAs?$AA?9?$AAC?$AAZ?$AA?$AA@ 0000000180020300     LIBCMT:winapinls.obj
 0002:00005310       ??_C@_1M@CLPEOBGI@?$AAd?$AAa?$AA?9?$AAD?$AAK?$AA?$AA@ 0000000180020310     LIBCMT:winapinls.obj
 0002:00005320       ??_C@_1M@MCMADGCB@?$AAd?$AAe?$AA?9?$AAD?$AAE?$AA?$AA@ 0000000180020320     LIBCMT:winapinls.obj
 0002:00005330       ??_C@_1M@OOCKEMAM@?$AAe?$AAl?$AA?9?$AAG?$AAR?$AA?$AA@ 0000000180020330     LIBCMT:winapinls.obj
 0002:00005340       ??_C@_1M@DDNJFGID@?$AAf?$AAi?$AA?9?$AAF?$AAI?$AA?$AA@ 0000000180020340     LIBCMT:winapinls.obj
 0002:00005350       ??_C@_1M@GLIPPMAC@?$AAf?$AAr?$AA?9?$AAF?$AAR?$AA?$AA@ 0000000180020350     LIBCMT:winapinls.obj
 0002:00005360       ??_C@_1M@GFMCHPE@?$AAh?$AAe?$AA?9?$AAI?$AAL?$AA?$AA@ 0000000180020360     LIBCMT:winapinls.obj
 0002:00005370       ??_C@_1M@MHLPGNKM@?$AAh?$AAu?$AA?9?$AAH?$AAU?$AA?$AA@ 0000000180020370     LIBCMT:winapinls.obj
 0002:00005380       ??_C@_1M@LPDDNNPN@?$AAi?$AAs?$AA?9?$AAI?$AAS?$AA?$AA@ 0000000180020380     LIBCMT:winapinls.obj
 0002:00005390       ??_C@_1M@MADIPODN@?$AAi?$AAt?$AA?9?$AAI?$AAT?$AA?$AA@ 0000000180020390     LIBCMT:winapinls.obj
 0002:000053a0       ??_C@_1M@IHBJJGG@?$AAn?$AAl?$AA?9?$AAN?$AAL?$AA?$AA@ 00000001800203a0     LIBCMT:winapinls.obj
 0002:000053b0       ??_C@_1M@EANAGDL@?$AAn?$AAb?$AA?9?$AAN?$AAO?$AA?$AA@ 00000001800203b0     LIBCMT:winapinls.obj
 0002:000053c0       ??_C@_1M@NEIEMEGP@?$AAp?$AAl?$AA?9?$AAP?$AAL?$AA?$AA@ 00000001800203c0     LIBCMT:winapinls.obj
 0002:000053d0       ??_C@_1M@BOCFIGEP@?$AAp?$AAt?$AA?9?$AAB?$AAR?$AA?$AA@ 00000001800203d0     LIBCMT:winapinls.obj
 0002:000053e0       ??_C@_1M@IMPFOPBG@?$AAr?$AAo?$AA?9?$AAR?$AAO?$AA?$AA@ 00000001800203e0     LIBCMT:winapinls.obj
 0002:000053f0       ??_C@_1M@IDNNEJMM@?$AAr?$AAu?$AA?9?$AAR?$AAU?$AA?$AA@ 00000001800203f0     LIBCMT:winapinls.obj
 0002:00005400       ??_C@_1M@LILEEOGM@?$AAh?$AAr?$AA?9?$AAH?$AAR?$AA?$AA@ 0000000180020400     LIBCMT:winapinls.obj
 0002:00005410       ??_C@_1M@FKIFEHPB@?$AAs?$AAk?$AA?9?$AAS?$AAK?$AA?$AA@ 0000000180020410     LIBCMT:winapinls.obj
 0002:00005420       ??_C@_1M@LJMAMNPJ@?$AAs?$AAq?$AA?9?$AAA?$AAL?$AA?$AA@ 0000000180020420     LIBCMT:winapinls.obj
 0002:00005430       ??_C@_1M@GIAKDKJK@?$AAs?$AAv?$AA?9?$AAS?$AAE?$AA?$AA@ 0000000180020430     LIBCMT:winapinls.obj
 0002:00005440       ??_C@_1M@MKJKIKCL@?$AAt?$AAh?$AA?9?$AAT?$AAH?$AA?$AA@ 0000000180020440     LIBCMT:winapinls.obj
 0002:00005450       ??_C@_1M@MFLCCMPB@?$AAt?$AAr?$AA?9?$AAT?$AAR?$AA?$AA@ 0000000180020450     LIBCMT:winapinls.obj
 0002:00005460       ??_C@_1M@OIJHDKJN@?$AAu?$AAr?$AA?9?$AAP?$AAK?$AA?$AA@ 0000000180020460     LIBCMT:winapinls.obj
 0002:00005470       ??_C@_1M@LHIPCIEK@?$AAi?$AAd?$AA?9?$AAI?$AAD?$AA?$AA@ 0000000180020470     LIBCMT:winapinls.obj
 0002:00005480       ??_C@_1M@MFMOBGI@?$AAu?$AAk?$AA?9?$AAU?$AAA?$AA?$AA@ 0000000180020480     LIBCMT:winapinls.obj
 0002:00005490       ??_C@_1M@OBGLJIPL@?$AAb?$AAe?$AA?9?$AAB?$AAY?$AA?$AA@ 0000000180020490     LIBCMT:winapinls.obj
 0002:000054a0       ??_C@_1M@BCFAJEAD@?$AAs?$AAl?$AA?9?$AAS?$AAI?$AA?$AA@ 00000001800204a0     LIBCMT:winapinls.obj
 0002:000054b0       ??_C@_1M@FKFFEDDN@?$AAe?$AAt?$AA?9?$AAE?$AAE?$AA?$AA@ 00000001800204b0     LIBCMT:winapinls.obj
 0002:000054c0       ??_C@_1M@KGKKAACI@?$AAl?$AAv?$AA?9?$AAL?$AAV?$AA?$AA@ 00000001800204c0     LIBCMT:winapinls.obj
 0002:000054d0       ??_C@_1M@IFGBIJO@?$AAl?$AAt?$AA?9?$AAL?$AAT?$AA?$AA@ 00000001800204d0     LIBCMT:winapinls.obj
 0002:000054e0       ??_C@_1M@FGEAHEDM@?$AAf?$AAa?$AA?9?$AAI?$AAR?$AA?$AA@ 00000001800204e0     LIBCMT:winapinls.obj
 0002:000054f0       ??_C@_1M@KBMAIBFN@?$AAv?$AAi?$AA?9?$AAV?$AAN?$AA?$AA@ 00000001800204f0     LIBCMT:winapinls.obj
 0002:00005500       ??_C@_1M@GPCBKDJK@?$AAh?$AAy?$AA?9?$AAA?$AAM?$AA?$AA@ 0000000180020500     LIBCMT:winapinls.obj
 0002:00005510       ??_C@_1BG@BECMDDJB@?$AAa?$AAz?$AA?9?$AAA?$AAZ?$AA?9?$AAL?$AAa?$AAt?$AAn?$AA?$AA@ 0000000180020510     LIBCMT:winapinls.obj
 0002:00005528       ??_C@_1M@MAOFCAEA@?$AAe?$AAu?$AA?9?$AAE?$AAS?$AA?$AA@ 0000000180020528     LIBCMT:winapinls.obj
 0002:00005538       ??_C@_1M@IGHABKPI@?$AAm?$AAk?$AA?9?$AAM?$AAK?$AA?$AA@ 0000000180020538     LIBCMT:winapinls.obj
 0002:00005548       ??_C@_1M@IAIGNEJG@?$AAt?$AAn?$AA?9?$AAZ?$AAA?$AA?$AA@ 0000000180020548     LIBCMT:winapinls.obj
 0002:00005558       ??_C@_1M@IIJCOJFA@?$AAx?$AAh?$AA?9?$AAZ?$AAA?$AA?$AA@ 0000000180020558     LIBCMT:winapinls.obj
 0002:00005568       ??_C@_1M@LGPJHNJH@?$AAz?$AAu?$AA?9?$AAZ?$AAA?$AA?$AA@ 0000000180020568     LIBCMT:winapinls.obj
 0002:00005578       ??_C@_1M@HOKAOIO@?$AAa?$AAf?$AA?9?$AAZ?$AAA?$AA?$AA@ 0000000180020578     LIBCMT:winapinls.obj
 0002:00005588       ??_C@_1M@DPCLHLIE@?$AAk?$AAa?$AA?9?$AAG?$AAE?$AA?$AA@ 0000000180020588     LIBCMT:winapinls.obj
 0002:00005598       ??_C@_1M@BLKMHJBI@?$AAf?$AAo?$AA?9?$AAF?$AAO?$AA?$AA@ 0000000180020598     LIBCMT:winapinls.obj
 0002:000055a8       ??_C@_1M@LGGJAPPB@?$AAh?$AAi?$AA?9?$AAI?$AAN?$AA?$AA@ 00000001800205a8     LIBCMT:winapinls.obj
 0002:000055b8       ??_C@_1M@FIKPIHFE@?$AAm?$AAt?$AA?9?$AAM?$AAT?$AA?$AA@ 00000001800205b8     LIBCMT:winapinls.obj
 0002:000055c8       ??_C@_1M@HEGGPBFA@?$AAs?$AAe?$AA?9?$AAN?$AAO?$AA?$AA@ 00000001800205c8     LIBCMT:winapinls.obj
 0002:000055d8       ??_C@_1M@EIBJEEPA@?$AAm?$AAs?$AA?9?$AAM?$AAY?$AA?$AA@ 00000001800205d8     LIBCMT:winapinls.obj
 0002:000055e8       ??_C@_1M@FHLBGMPP@?$AAk?$AAk?$AA?9?$AAK?$AAZ?$AA?$AA@ 00000001800205e8     LIBCMT:winapinls.obj
 0002:000055f8       ??_C@_1M@NGJJLCGI@?$AAk?$AAy?$AA?9?$AAK?$AAG?$AA?$AA@ 00000001800205f8     LIBCMT:winapinls.obj
 0002:00005608       ??_C@_1M@GIENNBFC@?$AAs?$AAw?$AA?9?$AAK?$AAE?$AA?$AA@ 0000000180020608     LIBCMT:winapinls.obj
 0002:00005618       ??_C@_1BG@NDGMJIMJ@?$AAu?$AAz?$AA?9?$AAU?$AAZ?$AA?9?$AAL?$AAa?$AAt?$AAn?$AA?$AA@ 0000000180020618     LIBCMT:winapinls.obj
 0002:00005630       ??_C@_1M@IDCCIHBC@?$AAt?$AAt?$AA?9?$AAR?$AAU?$AA?$AA@ 0000000180020630     LIBCMT:winapinls.obj
 0002:00005640       ??_C@_1M@LOICPMOJ@?$AAb?$AAn?$AA?9?$AAI?$AAN?$AA?$AA@ 0000000180020640     LIBCMT:winapinls.obj
 0002:00005650       ??_C@_1M@KPKKNEAH@?$AAp?$AAa?$AA?9?$AAI?$AAN?$AA?$AA@ 0000000180020650     LIBCMT:winapinls.obj
 0002:00005660       ??_C@_1M@PJGPPBOG@?$AAg?$AAu?$AA?9?$AAI?$AAN?$AA?$AA@ 0000000180020660     LIBCMT:winapinls.obj
 0002:00005670       ??_C@_1M@KMKMOPHI@?$AAt?$AAa?$AA?9?$AAI?$AAN?$AA?$AA@ 0000000180020670     LIBCMT:winapinls.obj
 0002:00005680       ??_C@_1M@KFEHEPAC@?$AAt?$AAe?$AA?9?$AAI?$AAN?$AA?$AA@ 0000000180020680     LIBCMT:winapinls.obj
 0002:00005690       ??_C@_1M@CDCLMGHI@?$AAk?$AAn?$AA?9?$AAI?$AAN?$AA?$AA@ 0000000180020690     LIBCMT:winapinls.obj
 0002:000056a0       ??_C@_1M@MIODLDKF@?$AAm?$AAl?$AA?9?$AAI?$AAN?$AA?$AA@ 00000001800206a0     LIBCMT:winapinls.obj
 0002:000056b0       ??_C@_1M@PBIEACPO@?$AAm?$AAr?$AA?9?$AAI?$AAN?$AA?$AA@ 00000001800206b0     LIBCMT:winapinls.obj
 0002:000056c0       ??_C@_1M@NIDEAGPH@?$AAs?$AAa?$AA?9?$AAI?$AAN?$AA?$AA@ 00000001800206c0     LIBCMT:winapinls.obj
 0002:000056d0       ??_C@_1M@FHIHCBIO@?$AAm?$AAn?$AA?9?$AAM?$AAN?$AA?$AA@ 00000001800206d0     LIBCMT:winapinls.obj
 0002:000056e0       ??_C@_1M@JAIJPENP@?$AAc?$AAy?$AA?9?$AAG?$AAB?$AA?$AA@ 00000001800206e0     LIBCMT:winapinls.obj
 0002:000056f0       ??_C@_1M@PHGFBEPN@?$AAg?$AAl?$AA?9?$AAE?$AAS?$AA?$AA@ 00000001800206f0     LIBCMT:winapinls.obj
 0002:00005700       ??_C@_1O@KPIPDNCP@?$AAk?$AAo?$AAk?$AA?9?$AAI?$AAN?$AA?$AA@ 0000000180020700     LIBCMT:winapinls.obj
 0002:00005710       ??_C@_1O@KNHJLDJA@?$AAs?$AAy?$AAr?$AA?9?$AAS?$AAY?$AA?$AA@ 0000000180020710     LIBCMT:winapinls.obj
 0002:00005720       ??_C@_1O@MKEKBLAH@?$AAd?$AAi?$AAv?$AA?9?$AAM?$AAV?$AA?$AA@ 0000000180020720     LIBCMT:winapinls.obj
 0002:00005730       ??_C@_1O@OHDCKDDF@?$AAq?$AAu?$AAz?$AA?9?$AAB?$AAO?$AA?$AA@ 0000000180020730     LIBCMT:winapinls.obj
 0002:00005740       ??_C@_1M@LEPJNLFD@?$AAn?$AAs?$AA?9?$AAZ?$AAA?$AA?$AA@ 0000000180020740     LIBCMT:winapinls.obj
 0002:00005750       ??_C@_1M@OMLEIIJB@?$AAm?$AAi?$AA?9?$AAN?$AAZ?$AA?$AA@ 0000000180020750     LIBCMT:winapinls.obj
 0002:00005760       ??_C@_1M@PMPEAILG@?$AAa?$AAr?$AA?9?$AAI?$AAQ?$AA?$AA@ 0000000180020760     LIBCMT:winapinls.obj
 0002:00005770       ??_C@_1M@CNKPNOEE@?$AAd?$AAe?$AA?9?$AAC?$AAH?$AA?$AA@ 0000000180020770     LIBCMT:winapinls.obj
 0002:00005780       ??_C@_1M@LKMGMLKO@?$AAe?$AAn?$AA?9?$AAG?$AAB?$AA?$AA@ 0000000180020780     LIBCMT:winapinls.obj
 0002:00005790       ??_C@_1M@PGKJFFGL@?$AAe?$AAs?$AA?9?$AAM?$AAX?$AA?$AA@ 0000000180020790     LIBCMT:winapinls.obj
 0002:000057a0       ??_C@_1M@DNNANBDC@?$AAf?$AAr?$AA?9?$AAB?$AAE?$AA?$AA@ 00000001800207a0     LIBCMT:winapinls.obj
 0002:000057b0       ??_C@_1M@HLGMDFHM@?$AAi?$AAt?$AA?9?$AAC?$AAH?$AA?$AA@ 00000001800207b0     LIBCMT:winapinls.obj
 0002:000057c0       ??_C@_1M@CLLBGJH@?$AAn?$AAl?$AA?9?$AAB?$AAE?$AA?$AA@ 00000001800207c0     LIBCMT:winapinls.obj
 0002:000057d0       ??_C@_1M@BODBOGLF@?$AAn?$AAn?$AA?9?$AAN?$AAO?$AA?$AA@ 00000001800207d0     LIBCMT:winapinls.obj
 0002:000057e0       ??_C@_1M@HFFAHKAD@?$AAp?$AAt?$AA?9?$AAP?$AAT?$AA?$AA@ 00000001800207e0     LIBCMT:winapinls.obj
 0002:000057f0       ??_C@_1BG@LNOAKHIE@?$AAs?$AAr?$AA?9?$AAS?$AAP?$AA?9?$AAL?$AAa?$AAt?$AAn?$AA?$AA@ 00000001800207f0     LIBCMT:winapinls.obj
 0002:00005808       ??_C@_1M@HBMHBGAK@?$AAs?$AAv?$AA?9?$AAF?$AAI?$AA?$AA@ 0000000180020808     LIBCMT:winapinls.obj
 0002:00005818       ??_C@_1BG@DGCJGJBE@?$AAa?$AAz?$AA?9?$AAA?$AAZ?$AA?9?$AAC?$AAy?$AAr?$AAl?$AA?$AA@ 0000000180020818     LIBCMT:winapinls.obj
 0002:00005830       ??_C@_1M@KEJDAAHB@?$AAs?$AAe?$AA?9?$AAS?$AAE?$AA?$AA@ 0000000180020830     LIBCMT:winapinls.obj
 0002:00005840       ??_C@_1M@HEIBJJAD@?$AAm?$AAs?$AA?9?$AAB?$AAN?$AA?$AA@ 0000000180020840     LIBCMT:winapinls.obj
 0002:00005850       ??_C@_1BG@PBGJMCEM@?$AAu?$AAz?$AA?9?$AAU?$AAZ?$AA?9?$AAC?$AAy?$AAr?$AAl?$AA?$AA@ 0000000180020850     LIBCMT:winapinls.obj
 0002:00005868       ??_C@_1O@LAOBCMDF@?$AAq?$AAu?$AAz?$AA?9?$AAE?$AAC?$AA?$AA@ 0000000180020868     LIBCMT:winapinls.obj
 0002:00005878       ??_C@_1M@POEEMAIO@?$AAa?$AAr?$AA?9?$AAE?$AAG?$AA?$AA@ 0000000180020878     LIBCMT:winapinls.obj
 0002:00005888       ??_C@_1M@EFAKDEDL@?$AAz?$AAh?$AA?9?$AAH?$AAK?$AA?$AA@ 0000000180020888     LIBCMT:winapinls.obj
 0002:00005898       ??_C@_1M@HKKIJHGI@?$AAd?$AAe?$AA?9?$AAA?$AAT?$AA?$AA@ 0000000180020898     LIBCMT:winapinls.obj
 0002:000058a8       ??_C@_1M@KBFBEHJF@?$AAe?$AAn?$AA?9?$AAA?$AAU?$AA?$AA@ 00000001800208a8     LIBCMT:winapinls.obj
 0002:000058b8       ??_C@_1M@MNPLFAAH@?$AAe?$AAs?$AA?9?$AAE?$AAS?$AA?$AA@ 00000001800208b8     LIBCMT:winapinls.obj
 0002:000058c8       ??_C@_1M@HJOOJFMA@?$AAf?$AAr?$AA?9?$AAC?$AAA?$AA?$AA@ 00000001800208c8     LIBCMT:winapinls.obj
 0002:000058d8       ??_C@_1BG@JPOFPNAB@?$AAs?$AAr?$AA?9?$AAS?$AAP?$AA?9?$AAC?$AAy?$AAr?$AAl?$AA?$AA@ 00000001800208d8     LIBCMT:winapinls.obj
 0002:000058f0       ??_C@_1M@LNFOCMOB@?$AAs?$AAe?$AA?9?$AAF?$AAI?$AA?$AA@ 00000001800208f0     LIBCMT:winapinls.obj
 0002:00005900       ??_C@_1O@MGJBOAMB@?$AAq?$AAu?$AAz?$AA?9?$AAP?$AAE?$AA?$AA@ 0000000180020900     LIBCMT:winapinls.obj
 0002:00005910       ??_C@_1M@GJINLBOK@?$AAa?$AAr?$AA?9?$AAL?$AAY?$AA?$AA@ 0000000180020910     LIBCMT:winapinls.obj
 0002:00005920       ??_C@_1M@GGMNHJNL@?$AAz?$AAh?$AA?9?$AAS?$AAG?$AA?$AA@ 0000000180020920     LIBCMT:winapinls.obj
 0002:00005930       ??_C@_1M@HOIKODND@?$AAd?$AAe?$AA?9?$AAL?$AAU?$AA?$AA@ 0000000180020930     LIBCMT:winapinls.obj
 0002:00005940       ??_C@_1M@DDOCCGFG@?$AAe?$AAn?$AA?9?$AAC?$AAA?$AA?$AA@ 0000000180020940     LIBCMT:winapinls.obj
 0002:00005950       ??_C@_1M@BNOEMJLF@?$AAe?$AAs?$AA?9?$AAG?$AAT?$AA?$AA@ 0000000180020950     LIBCMT:winapinls.obj
 0002:00005960       ??_C@_1M@EOGNKEK@?$AAf?$AAr?$AA?9?$AAC?$AAH?$AA?$AA@ 0000000180020960     LIBCMT:winapinls.obj
 0002:00005970       ??_C@_1M@FLIDJFHL@?$AAh?$AAr?$AA?9?$AAB?$AAA?$AA?$AA@ 0000000180020970     LIBCMT:winapinls.obj
 0002:00005980       ??_C@_1O@FMCELNAJ@?$AAs?$AAm?$AAj?$AA?9?$AAN?$AAO?$AA?$AA@ 0000000180020980     LIBCMT:winapinls.obj
 0002:00005990       ??_C@_1M@JHGLJMGJ@?$AAa?$AAr?$AA?9?$AAD?$AAZ?$AA?$AA@ 0000000180020990     LIBCMT:winapinls.obj
 0002:000059a0       ??_C@_1M@JKKFDCNP@?$AAz?$AAh?$AA?9?$AAM?$AAO?$AA?$AA@ 00000001800209a0     LIBCMT:winapinls.obj
 0002:000059b0       ??_C@_1M@GEEFALPE@?$AAd?$AAe?$AA?9?$AAL?$AAI?$AA?$AA@ 00000001800209b0     LIBCMT:winapinls.obj
 0002:000059c0       ??_C@_1M@IGEOFBG@?$AAe?$AAn?$AA?9?$AAN?$AAZ?$AA?$AA@ 00000001800209c0     LIBCMT:winapinls.obj
 0002:000059d0       ??_C@_1M@KDBONEHP@?$AAe?$AAs?$AA?9?$AAC?$AAR?$AA?$AA@ 00000001800209d0     LIBCMT:winapinls.obj
 0002:000059e0       ??_C@_1M@FHMDOHNN@?$AAf?$AAr?$AA?9?$AAL?$AAU?$AA?$AA@ 00000001800209e0     LIBCMT:winapinls.obj
 0002:000059f0       ??_C@_1BG@NFKKMAFG@?$AAb?$AAs?$AA?9?$AAB?$AAA?$AA?9?$AAL?$AAa?$AAt?$AAn?$AA?$AA@ 00000001800209f0     LIBCMT:winapinls.obj
 0002:00005a08       ??_C@_1O@IMNBEMCI@?$AAs?$AAm?$AAj?$AA?9?$AAS?$AAE?$AA?$AA@ 0000000180020a08     LIBCMT:winapinls.obj
 0002:00005a18       ??_C@_1M@DHHMBNDP@?$AAa?$AAr?$AA?9?$AAM?$AAA?$AA?$AA@ 0000000180020a18     LIBCMT:winapinls.obj
 0002:00005a28       ??_C@_1M@BNBLJCGH@?$AAe?$AAn?$AA?9?$AAI?$AAE?$AA?$AA@ 0000000180020a28     LIBCMT:winapinls.obj
 0002:00005a38       ??_C@_1M@GEPAFMDL@?$AAe?$AAs?$AA?9?$AAP?$AAA?$AA?$AA@ 0000000180020a38     LIBCMT:winapinls.obj
 0002:00005a48       ??_C@_1M@OJONDMDL@?$AAf?$AAr?$AA?9?$AAM?$AAC?$AA?$AA@ 0000000180020a48     LIBCMT:winapinls.obj
 0002:00005a58       ??_C@_1BG@OBCNFJB@?$AAs?$AAr?$AA?9?$AAB?$AAA?$AA?9?$AAL?$AAa?$AAt?$AAn?$AA?$AA@ 0000000180020a58     LIBCMT:winapinls.obj
 0002:00005a70       ??_C@_1O@KEMEEGPO@?$AAs?$AAm?$AAa?$AA?9?$AAN?$AAO?$AA?$AA@ 0000000180020a70     LIBCMT:winapinls.obj
 0002:00005a80       ??_C@_1M@ELMGFODK@?$AAa?$AAr?$AA?9?$AAT?$AAN?$AA?$AA@ 0000000180020a80     LIBCMT:winapinls.obj
 0002:00005a90       ??_C@_1M@BHDLHFAF@?$AAe?$AAn?$AA?9?$AAZ?$AAA?$AA?$AA@ 0000000180020a90     LIBCMT:winapinls.obj
 0002:00005aa0       ??_C@_1M@BMGIGLIF@?$AAe?$AAs?$AA?9?$AAD?$AAO?$AA?$AA@ 0000000180020aa0     LIBCMT:winapinls.obj
 0002:00005ab0       ??_C@_1BG@CMBHIPBE@?$AAs?$AAr?$AA?9?$AAB?$AAA?$AA?9?$AAC?$AAy?$AAr?$AAl?$AA?$AA@ 0000000180020ab0     LIBCMT:winapinls.obj
 0002:00005ac8       ??_C@_1O@HEDBLHNP@?$AAs?$AAm?$AAa?$AA?9?$AAS?$AAE?$AA?$AA@ 0000000180020ac8     LIBCMT:winapinls.obj
 0002:00005ad8       ??_C@_1M@DAGCADIM@?$AAa?$AAr?$AA?9?$AAO?$AAM?$AA?$AA@ 0000000180020ad8     LIBCMT:winapinls.obj
 0002:00005ae8       ??_C@_1M@FODLMICG@?$AAe?$AAn?$AA?9?$AAJ?$AAM?$AA?$AA@ 0000000180020ae8     LIBCMT:winapinls.obj
 0002:00005af8       ??_C@_1M@DNMLCIHB@?$AAe?$AAs?$AA?9?$AAV?$AAE?$AA?$AA@ 0000000180020af8     LIBCMT:winapinls.obj
 0002:00005b08       ??_C@_1O@EOKHMKJK@?$AAs?$AAm?$AAs?$AA?9?$AAF?$AAI?$AA?$AA@ 0000000180020b08     LIBCMT:winapinls.obj
 0002:00005b18       ??_C@_1M@CAFJMKOF@?$AAa?$AAr?$AA?9?$AAY?$AAE?$AA?$AA@ 0000000180020b18     LIBCMT:winapinls.obj
 0002:00005b28       ??_C@_1M@CBFHIJLI@?$AAe?$AAn?$AA?9?$AAC?$AAB?$AA?$AA@ 0000000180020b28     LIBCMT:winapinls.obj
 0002:00005b38       ??_C@_1M@BGNFLDN@?$AAe?$AAs?$AA?9?$AAC?$AAO?$AA?$AA@ 0000000180020b38     LIBCMT:winapinls.obj
 0002:00005b48       ??_C@_1O@JMPHMAMC@?$AAs?$AAm?$AAn?$AA?9?$AAF?$AAI?$AA?$AA@ 0000000180020b48     LIBCMT:winapinls.obj
 0002:00005b58       ??_C@_1M@JLANABKE@?$AAa?$AAr?$AA?9?$AAS?$AAY?$AA?$AA@ 0000000180020b58     LIBCMT:winapinls.obj
 0002:00005b68       ??_C@_1M@HPKGCFGN@?$AAe?$AAn?$AA?9?$AAB?$AAZ?$AA?$AA@ 0000000180020b68     LIBCMT:winapinls.obj
 0002:00005b78       ??_C@_1M@OLJCMLGM@?$AAe?$AAs?$AA?9?$AAP?$AAE?$AA?$AA@ 0000000180020b78     LIBCMT:winapinls.obj
 0002:00005b88       ??_C@_1M@MKKGFKLE@?$AAa?$AAr?$AA?9?$AAJ?$AAO?$AA?$AA@ 0000000180020b88     LIBCMT:winapinls.obj
 0002:00005b98       ??_C@_1M@EKPGLDNI@?$AAe?$AAn?$AA?9?$AAT?$AAT?$AA?$AA@ 0000000180020b98     LIBCMT:winapinls.obj
 0002:00005ba8       ??_C@_1M@OONGHFHE@?$AAe?$AAs?$AA?9?$AAA?$AAR?$AA?$AA@ 0000000180020ba8     LIBCMT:winapinls.obj
 0002:00005bb8       ??_C@_1M@OOJFGBHE@?$AAa?$AAr?$AA?9?$AAL?$AAB?$AA?$AA@ 0000000180020bb8     LIBCMT:winapinls.obj
 0002:00005bc8       ??_C@_1M@GCEJHNEG@?$AAe?$AAn?$AA?9?$AAZ?$AAW?$AA?$AA@ 0000000180020bc8     LIBCMT:winapinls.obj
 0002:00005bd8       ??_C@_1M@JNOCAHJI@?$AAe?$AAs?$AA?9?$AAE?$AAC?$AA?$AA@ 0000000180020bd8     LIBCMT:winapinls.obj
 0002:00005be8       ??_C@_1M@JEFHPGGB@?$AAa?$AAr?$AA?9?$AAK?$AAW?$AA?$AA@ 0000000180020be8     LIBCMT:winapinls.obj
 0002:00005bf8       ??_C@_1M@MLKIBJOJ@?$AAe?$AAn?$AA?9?$AAP?$AAH?$AA?$AA@ 0000000180020bf8     LIBCMT:winapinls.obj
 0002:00005c08       ??_C@_1M@BDNIPEND@?$AAe?$AAs?$AA?9?$AAC?$AAL?$AA?$AA@ 0000000180020c08     LIBCMT:winapinls.obj
 0002:00005c18       ??_C@_1M@MPNMEKBD@?$AAa?$AAr?$AA?9?$AAA?$AAE?$AA?$AA@ 0000000180020c18     LIBCMT:winapinls.obj
 0002:00005c28       ??_C@_1M@KBJALCPI@?$AAe?$AAs?$AA?9?$AAU?$AAY?$AA?$AA@ 0000000180020c28     LIBCMT:winapinls.obj
 0002:00005c38       ??_C@_1M@LLCCOAGA@?$AAa?$AAr?$AA?9?$AAB?$AAH?$AA?$AA@ 0000000180020c38     LIBCMT:winapinls.obj
 0002:00005c48       ??_C@_1M@PBFNCDEL@?$AAe?$AAs?$AA?9?$AAP?$AAY?$AA?$AA@ 0000000180020c48     LIBCMT:winapinls.obj
 0002:00005c58       ??_C@_1M@EDGINPNP@?$AAa?$AAr?$AA?9?$AAQ?$AAA?$AA?$AA@ 0000000180020c58     LIBCMT:winapinls.obj
 0002:00005c68       ??_C@_1M@MKDBIIJI@?$AAe?$AAs?$AA?9?$AAB?$AAO?$AA?$AA@ 0000000180020c68     LIBCMT:winapinls.obj
 0002:00005c78       ??_C@_1M@CPKKEBLD@?$AAe?$AAs?$AA?9?$AAS?$AAV?$AA?$AA@ 0000000180020c78     LIBCMT:winapinls.obj
 0002:00005c88       ??_C@_1M@NDBGMMJL@?$AAe?$AAs?$AA?9?$AAH?$AAN?$AA?$AA@ 0000000180020c88     LIBCMT:winapinls.obj
 0002:00005c98       ??_C@_1M@JIJIBHDP@?$AAe?$AAs?$AA?9?$AAN?$AAI?$AA?$AA@ 0000000180020c98     LIBCMT:winapinls.obj
 0002:00005ca8       ??_C@_1M@CGFMKEEK@?$AAe?$AAs?$AA?9?$AAP?$AAR?$AA?$AA@ 0000000180020ca8     LIBCMT:winapinls.obj
 0002:00005cb8       ??_C@_1O@ICJHKIIK@?$AAz?$AAh?$AA?9?$AAC?$AAH?$AAT?$AA?$AA@ 0000000180020cb8     LIBCMT:winapinls.obj
 0002:00005cc8       ??_C@_15CLNEJCE@?$AAs?$AAr?$AA?$AA@ 0000000180020cc8     LIBCMT:winapinls.obj
 0002:00005cd0       ??_C@_1M@KAHEKEIG@?$AAa?$AAf?$AA?9?$AAz?$AAa?$AA?$AA@ 0000000180020cd0     LIBCMT:winapinls.obj
 0002:00005ce0       ??_C@_1M@GIECOABL@?$AAa?$AAr?$AA?9?$AAa?$AAe?$AA?$AA@ 0000000180020ce0     LIBCMT:winapinls.obj
 0002:00005cf0       ??_C@_1M@BMLMEKGI@?$AAa?$AAr?$AA?9?$AAb?$AAh?$AA?$AA@ 0000000180020cf0     LIBCMT:winapinls.obj
 0002:00005d00       ??_C@_1M@DAPFDGGB@?$AAa?$AAr?$AA?9?$AAd?$AAz?$AA?$AA@ 0000000180020d00     LIBCMT:winapinls.obj
 0002:00005d10       ??_C@_1M@FJNKGKIG@?$AAa?$AAr?$AA?9?$AAe?$AAg?$AA?$AA@ 0000000180020d10     LIBCMT:winapinls.obj
 0002:00005d20       ??_C@_1M@FLGKKCLO@?$AAa?$AAr?$AA?9?$AAi?$AAq?$AA?$AA@ 0000000180020d20     LIBCMT:winapinls.obj
 0002:00005d30       ??_C@_1M@GNDIPALM@?$AAa?$AAr?$AA?9?$AAj?$AAo?$AA?$AA@ 0000000180020d30     LIBCMT:winapinls.obj
 0002:00005d40       ??_C@_1M@DDMJFMGJ@?$AAa?$AAr?$AA?9?$AAk?$AAw?$AA?$AA@ 0000000180020d40     LIBCMT:winapinls.obj
 0002:00005d50       ??_C@_1M@EJALMLHM@?$AAa?$AAr?$AA?9?$AAl?$AAb?$AA?$AA@ 0000000180020d50     LIBCMT:winapinls.obj
 0002:00005d60       ??_C@_1M@MOBDBLOC@?$AAa?$AAr?$AA?9?$AAl?$AAy?$AA?$AA@ 0000000180020d60     LIBCMT:winapinls.obj
 0002:00005d70       ??_C@_1M@JAOCLHDH@?$AAa?$AAr?$AA?9?$AAm?$AAa?$AA?$AA@ 0000000180020d70     LIBCMT:winapinls.obj
 0002:00005d80       ??_C@_1M@JHPMKJIE@?$AAa?$AAr?$AA?9?$AAo?$AAm?$AA?$AA@ 0000000180020d80     LIBCMT:winapinls.obj
 0002:00005d90       ??_C@_1M@OEPGHFNH@?$AAa?$AAr?$AA?9?$AAq?$AAa?$AA?$AA@ 0000000180020d90     LIBCMT:winapinls.obj
 0002:00005da0       ??_C@_1M@KJDONENM@?$AAa?$AAr?$AA?9?$AAs?$AAa?$AA?$AA@ 0000000180020da0     LIBCMT:winapinls.obj
 0002:00005db0       ??_C@_1M@DMJDKLKM@?$AAa?$AAr?$AA?9?$AAs?$AAy?$AA?$AA@ 0000000180020db0     LIBCMT:winapinls.obj
 0002:00005dc0       ??_C@_1M@OMFIPEDC@?$AAa?$AAr?$AA?9?$AAt?$AAn?$AA?$AA@ 0000000180020dc0     LIBCMT:winapinls.obj
 0002:00005dd0       ??_C@_1M@IHMHGAON@?$AAa?$AAr?$AA?9?$AAy?$AAe?$AA?$AA@ 0000000180020dd0     LIBCMT:winapinls.obj
 0002:00005de0       ??_C@_1BG@KDCPGJGB@?$AAa?$AAz?$AA?9?$AAa?$AAz?$AA?9?$AAc?$AAy?$AAr?$AAl?$AA?$AA@ 0000000180020de0     LIBCMT:winapinls.obj
 0002:00005df8       ??_C@_1BG@IBCKDDOE@?$AAa?$AAz?$AA?9?$AAa?$AAz?$AA?9?$AAl?$AAa?$AAt?$AAn?$AA?$AA@ 0000000180020df8     LIBCMT:winapinls.obj
 0002:00005e10       ??_C@_1M@EGPFDCPD@?$AAb?$AAe?$AA?9?$AAb?$AAy?$AA?$AA@ 0000000180020e10     LIBCMT:winapinls.obj
 0002:00005e20       ??_C@_1M@PCMGMCGC@?$AAb?$AAg?$AA?9?$AAb?$AAg?$AA?$AA@ 0000000180020e20     LIBCMT:winapinls.obj
 0002:00005e30       ??_C@_1M@BJBMFGOB@?$AAb?$AAn?$AA?9?$AAi?$AAn?$AA?$AA@ 0000000180020e30     LIBCMT:winapinls.obj
 0002:00005e40       ??_C@_1BG@EAKMMACD@?$AAb?$AAs?$AA?9?$AAb?$AAa?$AA?9?$AAl?$AAa?$AAt?$AAn?$AA?$AA@ 0000000180020e40     LIBCMT:winapinls.obj
 0002:00005e58       ??_C@_1M@KGADAODK@?$AAc?$AAa?$AA?9?$AAe?$AAs?$AA?$AA@ 0000000180020e58     LIBCMT:winapinls.obj
 0002:00005e68       ??_C@_1M@COAJPDHI@?$AAc?$AAs?$AA?9?$AAc?$AAz?$AA?$AA@ 0000000180020e68     LIBCMT:winapinls.obj
 0002:00005e78       ??_C@_1M@DHBHFONH@?$AAc?$AAy?$AA?9?$AAg?$AAb?$AA?$AA@ 0000000180020e78     LIBCMT:winapinls.obj
 0002:00005e88       ??_C@_1M@IMGKELGA@?$AAd?$AAa?$AA?9?$AAd?$AAk?$AA?$AA@ 0000000180020e88     LIBCMT:winapinls.obj
 0002:00005e98       ??_C@_1M@NNDGDNGA@?$AAd?$AAe?$AA?9?$AAa?$AAt?$AA?$AA@ 0000000180020e98     LIBCMT:winapinls.obj
 0002:00005ea8       ??_C@_1M@IKDBHEEM@?$AAd?$AAe?$AA?9?$AAc?$AAh?$AA?$AA@ 0000000180020ea8     LIBCMT:winapinls.obj
 0002:00005eb8       ??_C@_1M@GFFOJMCJ@?$AAd?$AAe?$AA?9?$AAd?$AAe?$AA?$AA@ 0000000180020eb8     LIBCMT:winapinls.obj
 0002:00005ec8       ??_C@_1M@MDNLKBPM@?$AAd?$AAe?$AA?9?$AAl?$AAi?$AA?$AA@ 0000000180020ec8     LIBCMT:winapinls.obj
 0002:00005ed8       ??_C@_1M@NJBEEJNL@?$AAd?$AAe?$AA?9?$AAl?$AAu?$AA?$AA@ 0000000180020ed8     LIBCMT:winapinls.obj
 0002:00005ee8       ??_C@_1O@GNNELBAP@?$AAd?$AAi?$AAv?$AA?9?$AAm?$AAv?$AA?$AA@ 0000000180020ee8     LIBCMT:winapinls.obj
 0002:00005ef8       ??_C@_1M@EJLEOGAE@?$AAe?$AAl?$AA?9?$AAg?$AAr?$AA?$AA@ 0000000180020ef8     LIBCMT:winapinls.obj
 0002:00005f08       ??_C@_1M@GMPONJN@?$AAe?$AAn?$AA?9?$AAa?$AAu?$AA?$AA@ 0000000180020f08     LIBCMT:winapinls.obj
 0002:00005f18       ??_C@_1M@NIDIIPGF@?$AAe?$AAn?$AA?9?$AAb?$AAz?$AA?$AA@ 0000000180020f18     LIBCMT:winapinls.obj
 0002:00005f28       ??_C@_1M@JEHMIMFO@?$AAe?$AAn?$AA?9?$AAc?$AAa?$AA?$AA@ 0000000180020f28     LIBCMT:winapinls.obj
 0002:00005f38       ??_C@_1M@IGMJCDLA@?$AAe?$AAn?$AA?9?$AAc?$AAb?$AA?$AA@ 0000000180020f38     LIBCMT:winapinls.obj
 0002:00005f48       ??_C@_1M@BNFIGBKG@?$AAe?$AAn?$AA?9?$AAg?$AAb?$AA?$AA@ 0000000180020f48     LIBCMT:winapinls.obj
 0002:00005f58       ??_C@_1M@LKIFDIGP@?$AAe?$AAn?$AA?9?$AAi?$AAe?$AA?$AA@ 0000000180020f58     LIBCMT:winapinls.obj
 0002:00005f68       ??_C@_1M@PJKFGCCO@?$AAe?$AAn?$AA?9?$AAj?$AAm?$AA?$AA@ 0000000180020f68     LIBCMT:winapinls.obj
 0002:00005f78       ??_C@_1M@KPPKEPBO@?$AAe?$AAn?$AA?9?$AAn?$AAz?$AA?$AA@ 0000000180020f78     LIBCMT:winapinls.obj
 0002:00005f88       ??_C@_1M@GMDGLDOB@?$AAe?$AAn?$AA?9?$AAp?$AAh?$AA?$AA@ 0000000180020f88     LIBCMT:winapinls.obj
 0002:00005f98       ??_C@_1M@ONGIBJNA@?$AAe?$AAn?$AA?9?$AAt?$AAt?$AA?$AA@ 0000000180020f98     LIBCMT:winapinls.obj
 0002:00005fa8       ??_C@_1M@LLODPCMM@?$AAe?$AAn?$AA?9?$AAu?$AAs?$AA?$AA@ 0000000180020fa8     LIBCMT:winapinls.obj
 0002:00005fb8       ??_C@_1M@LAKFNPAN@?$AAe?$AAn?$AA?9?$AAz?$AAa?$AA?$AA@ 0000000180020fb8     LIBCMT:winapinls.obj
 0002:00005fc8       ??_C@_1M@MFNHNHEO@?$AAe?$AAn?$AA?9?$AAz?$AAw?$AA?$AA@ 0000000180020fc8     LIBCMT:winapinls.obj
 0002:00005fd8       ??_C@_1M@EJEINPHM@?$AAe?$AAs?$AA?9?$AAa?$AAr?$AA?$AA@ 0000000180020fd8     LIBCMT:winapinls.obj
 0002:00005fe8       ??_C@_1M@GNKPCCJA@?$AAe?$AAs?$AA?9?$AAb?$AAo?$AA?$AA@ 0000000180020fe8     LIBCMT:winapinls.obj
 0002:00005ff8       ??_C@_1M@LEEGFONL@?$AAe?$AAs?$AA?9?$AAc?$AAl?$AA?$AA@ 0000000180020ff8     LIBCMT:winapinls.obj
 0002:00006008       ??_C@_1M@KGPDPBDF@?$AAe?$AAs?$AA?9?$AAc?$AAo?$AA?$AA@ 0000000180021008     LIBCMT:winapinls.obj
 0002:00006018       ??_C@_1M@EIAHOHH@?$AAe?$AAs?$AA?9?$AAc?$AAr?$AA?$AA@ 0000000180021018     LIBCMT:winapinls.obj
 0002:00006028       ??_C@_1M@LLPGMBIN@?$AAe?$AAs?$AA?9?$AAd?$AAo?$AA?$AA@ 0000000180021028     LIBCMT:winapinls.obj
 0002:00006038       ??_C@_1M@DKHMKNJA@?$AAe?$AAs?$AA?9?$AAe?$AAc?$AA?$AA@ 0000000180021038     LIBCMT:winapinls.obj
 0002:00006048       ??_C@_1M@GKGFPKAP@?$AAe?$AAs?$AA?9?$AAe?$AAs?$AA?$AA@ 0000000180021048     LIBCMT:winapinls.obj
 0002:00006058       ??_C@_1M@LKHKGDLN@?$AAe?$AAs?$AA?9?$AAg?$AAt?$AA?$AA@ 0000000180021058     LIBCMT:winapinls.obj
 0002:00006068       ??_C@_1M@HEIIGGJD@?$AAe?$AAs?$AA?9?$AAh?$AAn?$AA?$AA@ 0000000180021068     LIBCMT:winapinls.obj
 0002:00006078       ??_C@_1M@FBDHPPGD@?$AAe?$AAs?$AA?9?$AAm?$AAx?$AA?$AA@ 0000000180021078     LIBCMT:winapinls.obj
 0002:00006088       ??_C@_1M@DPAGLNDH@?$AAe?$AAs?$AA?9?$AAn?$AAi?$AA?$AA@ 0000000180021088     LIBCMT:winapinls.obj
 0002:00006098       ??_C@_1M@MDGOPGDD@?$AAe?$AAs?$AA?9?$AAp?$AAa?$AA?$AA@ 0000000180021098     LIBCMT:winapinls.obj
 0002:000060a8       ??_C@_1M@EMAMGBGE@?$AAe?$AAs?$AA?9?$AAp?$AAe?$AA?$AA@ 00000001800210a8     LIBCMT:winapinls.obj
 0002:000060b8       ??_C@_1M@IBMCAOEC@?$AAe?$AAs?$AA?9?$AAp?$AAr?$AA?$AA@ 00000001800210b8     LIBCMT:winapinls.obj
 0002:000060c8       ??_C@_1M@FGMDIJED@?$AAe?$AAs?$AA?9?$AAp?$AAy?$AA?$AA@ 00000001800210c8     LIBCMT:winapinls.obj
 0002:000060d8       ??_C@_1M@IIDEOLLL@?$AAe?$AAs?$AA?9?$AAs?$AAv?$AA?$AA@ 00000001800210d8     LIBCMT:winapinls.obj
 0002:000060e8       ??_C@_1M@GAOBIPA@?$AAe?$AAs?$AA?9?$AAu?$AAy?$AA?$AA@ 00000001800210e8     LIBCMT:winapinls.obj
 0002:000060f8       ??_C@_1M@JKFFICHJ@?$AAe?$AAs?$AA?9?$AAv?$AAe?$AA?$AA@ 00000001800210f8     LIBCMT:winapinls.obj
 0002:00006108       ??_C@_1M@PNMLOJDF@?$AAe?$AAt?$AA?9?$AAe?$AAe?$AA?$AA@ 0000000180021108     LIBCMT:winapinls.obj
 0002:00006118       ??_C@_1M@GHHLIKEI@?$AAe?$AAu?$AA?9?$AAe?$AAs?$AA?$AA@ 0000000180021118     LIBCMT:winapinls.obj
 0002:00006128       ??_C@_1M@PBNONODE@?$AAf?$AAa?$AA?9?$AAi?$AAr?$AA?$AA@ 0000000180021128     LIBCMT:winapinls.obj
 0002:00006138       ??_C@_1M@JEEHPMIL@?$AAf?$AAi?$AA?9?$AAf?$AAi?$AA?$AA@ 0000000180021138     LIBCMT:winapinls.obj
 0002:00006148       ??_C@_1M@LMDCNDBA@?$AAf?$AAo?$AA?9?$AAf?$AAo?$AA?$AA@ 0000000180021148     LIBCMT:winapinls.obj
 0002:00006158       ??_C@_1M@JKEOHLDK@?$AAf?$AAr?$AA?9?$AAb?$AAe?$AA?$AA@ 0000000180021158     LIBCMT:winapinls.obj
 0002:00006168       ??_C@_1M@NOHADPMI@?$AAf?$AAr?$AA?9?$AAc?$AAa?$AA?$AA@ 0000000180021168     LIBCMT:winapinls.obj
 0002:00006178       ??_C@_1M@KDHIHAEC@?$AAf?$AAr?$AA?9?$AAc?$AAh?$AA?$AA@ 0000000180021178     LIBCMT:winapinls.obj
 0002:00006188       ??_C@_1M@MMBBFGAK@?$AAf?$AAr?$AA?9?$AAf?$AAr?$AA?$AA@ 0000000180021188     LIBCMT:winapinls.obj
 0002:00006198       ??_C@_1M@PAFNENNF@?$AAf?$AAr?$AA?9?$AAl?$AAu?$AA?$AA@ 0000000180021198     LIBCMT:winapinls.obj
 0002:000061a8       ??_C@_1M@EOHDJGDD@?$AAf?$AAr?$AA?9?$AAm?$AAc?$AA?$AA@ 00000001800211a8     LIBCMT:winapinls.obj
 0002:000061b8       ??_C@_1M@FAPLLOPF@?$AAg?$AAl?$AA?9?$AAe?$AAs?$AA?$AA@ 00000001800211b8     LIBCMT:winapinls.obj
 0002:000061c8       ??_C@_1M@FOPBFLOO@?$AAg?$AAu?$AA?9?$AAi?$AAn?$AA?$AA@ 00000001800211c8     LIBCMT:winapinls.obj
 0002:000061d8       ??_C@_1M@KBMCINPM@?$AAh?$AAe?$AA?9?$AAi?$AAl?$AA?$AA@ 00000001800211d8     LIBCMT:winapinls.obj
 0002:000061e8       ??_C@_1M@BBPHKFPJ@?$AAh?$AAi?$AA?9?$AAi?$AAn?$AA?$AA@ 00000001800211e8     LIBCMT:winapinls.obj
 0002:000061f8       ??_C@_1M@PMBNDPHD@?$AAh?$AAr?$AA?9?$AAb?$AAa?$AA?$AA@ 00000001800211f8     LIBCMT:winapinls.obj
 0002:00006208       ??_C@_1M@BPCKOEGE@?$AAh?$AAr?$AA?9?$AAh?$AAr?$AA?$AA@ 0000000180021208     LIBCMT:winapinls.obj
 0002:00006218       ??_C@_1M@GACBMHKE@?$AAh?$AAu?$AA?9?$AAh?$AAu?$AA?$AA@ 0000000180021218     LIBCMT:winapinls.obj
 0002:00006228       ??_C@_1M@MILPAJJC@?$AAh?$AAy?$AA?9?$AAa?$AAm?$AA?$AA@ 0000000180021228     LIBCMT:winapinls.obj
 0002:00006238       ??_C@_1M@BABBICEC@?$AAi?$AAd?$AA?9?$AAi?$AAd?$AA?$AA@ 0000000180021238     LIBCMT:winapinls.obj
 0002:00006248       ??_C@_1M@BIKNHHPF@?$AAi?$AAs?$AA?9?$AAi?$AAs?$AA?$AA@ 0000000180021248     LIBCMT:winapinls.obj
 0002:00006258       ??_C@_1M@NMPCJPHE@?$AAi?$AAt?$AA?9?$AAc?$AAh?$AA?$AA@ 0000000180021258     LIBCMT:winapinls.obj
 0002:00006268       ??_C@_1M@GHKGFEDF@?$AAi?$AAt?$AA?9?$AAi?$AAt?$AA?$AA@ 0000000180021268     LIBCMT:winapinls.obj
 0002:00006278       ??_C@_1M@NIEJCJJA@?$AAj?$AAa?$AA?9?$AAj?$AAp?$AA?$AA@ 0000000180021278     LIBCMT:winapinls.obj
 0002:00006288       ??_C@_1M@JILFNBIM@?$AAk?$AAa?$AA?9?$AAg?$AAe?$AA?$AA@ 0000000180021288     LIBCMT:winapinls.obj
 0002:00006298       ??_C@_1M@PACPMGPH@?$AAk?$AAk?$AA?9?$AAk?$AAz?$AA?$AA@ 0000000180021298     LIBCMT:winapinls.obj
 0002:000062a8       ??_C@_1M@IELFGMHA@?$AAk?$AAn?$AA?9?$AAi?$AAn?$AA?$AA@ 00000001800212a8     LIBCMT:winapinls.obj
 0002:000062b8       ??_C@_1O@IBBJHCH@?$AAk?$AAo?$AAk?$AA?9?$AAi?$AAn?$AA?$AA@ 00000001800212b8     LIBCMT:winapinls.obj
 0002:000062c8       ??_C@_1M@DMHAEOGC@?$AAk?$AAo?$AA?9?$AAk?$AAr?$AA?$AA@ 00000001800212c8     LIBCMT:winapinls.obj
 0002:000062d8       ??_C@_1M@HBAHBIGA@?$AAk?$AAy?$AA?9?$AAk?$AAg?$AA?$AA@ 00000001800212d8     LIBCMT:winapinls.obj
 0002:000062e8       ??_C@_1M@KPMILCJG@?$AAl?$AAt?$AA?9?$AAl?$AAt?$AA?$AA@ 00000001800212e8     LIBCMT:winapinls.obj
 0002:000062f8       ??_C@_1M@BDEKKCA@?$AAl?$AAv?$AA?9?$AAl?$AAv?$AA?$AA@ 00000001800212f8     LIBCMT:winapinls.obj
 0002:00006308       ??_C@_1M@ELCKCCJJ@?$AAm?$AAi?$AA?9?$AAn?$AAz?$AA?$AA@ 0000000180021308     LIBCMT:winapinls.obj
 0002:00006318       ??_C@_1M@CBOOLAPA@?$AAm?$AAk?$AA?9?$AAm?$AAk?$AA?$AA@ 0000000180021318     LIBCMT:winapinls.obj
 0002:00006328       ??_C@_1M@GPHNBJKN@?$AAm?$AAl?$AA?9?$AAi?$AAn?$AA?$AA@ 0000000180021328     LIBCMT:winapinls.obj
 0002:00006338       ??_C@_1M@PABJILIG@?$AAm?$AAn?$AA?9?$AAm?$AAn?$AA?$AA@ 0000000180021338     LIBCMT:winapinls.obj
 0002:00006348       ??_C@_1M@FGBKKIPG@?$AAm?$AAr?$AA?9?$AAi?$AAn?$AA?$AA@ 0000000180021348     LIBCMT:winapinls.obj
 0002:00006358       ??_C@_1M@NDBPDDAL@?$AAm?$AAs?$AA?9?$AAb?$AAn?$AA?$AA@ 0000000180021358     LIBCMT:winapinls.obj
 0002:00006368       ??_C@_1M@OPIHOOPI@?$AAm?$AAs?$AA?9?$AAm?$AAy?$AA?$AA@ 0000000180021368     LIBCMT:winapinls.obj
 0002:00006378       ??_C@_1M@PPDBCNFM@?$AAm?$AAt?$AA?9?$AAm?$AAt?$AA?$AA@ 0000000180021378     LIBCMT:winapinls.obj
 0002:00006388       ??_C@_1M@KDJDKMDD@?$AAn?$AAb?$AA?9?$AAn?$AAo?$AA?$AA@ 0000000180021388     LIBCMT:winapinls.obj
 0002:00006398       ??_C@_1M@KFCFLMJP@?$AAn?$AAl?$AA?9?$AAb?$AAe?$AA?$AA@ 0000000180021398     LIBCMT:winapinls.obj
 0002:000063a8       ??_C@_1M@KPOPDDGO@?$AAn?$AAl?$AA?9?$AAn?$AAl?$AA?$AA@ 00000001800213a8     LIBCMT:winapinls.obj
 0002:000063b8       ??_C@_1M@LJKPEMLN@?$AAn?$AAn?$AA?9?$AAn?$AAo?$AA?$AA@ 00000001800213b8     LIBCMT:winapinls.obj
 0002:000063c8       ??_C@_1M@BDGHHBFL@?$AAn?$AAs?$AA?9?$AAz?$AAa?$AA?$AA@ 00000001800213c8     LIBCMT:winapinls.obj
 0002:000063d8       ??_C@_1M@IDEHOAP@?$AAp?$AAa?$AA?9?$AAi?$AAn?$AA?$AA@ 00000001800213d8     LIBCMT:winapinls.obj
 0002:000063e8       ??_C@_1M@HDBKGOGH@?$AAp?$AAl?$AA?9?$AAp?$AAl?$AA?$AA@ 00000001800213e8     LIBCMT:winapinls.obj
 0002:000063f8       ??_C@_1M@LJLLCMEH@?$AAp?$AAt?$AA?9?$AAb?$AAr?$AA?$AA@ 00000001800213f8     LIBCMT:winapinls.obj
 0002:00006408       ??_C@_1M@NCMONAAL@?$AAp?$AAt?$AA?9?$AAp?$AAt?$AA?$AA@ 0000000180021408     LIBCMT:winapinls.obj
 0002:00006418       ??_C@_1O@EAKMAJDN@?$AAq?$AAu?$AAz?$AA?9?$AAb?$AAo?$AA?$AA@ 0000000180021418     LIBCMT:winapinls.obj
 0002:00006428       ??_C@_1O@BHHPIGDN@?$AAq?$AAu?$AAz?$AA?9?$AAe?$AAc?$AA?$AA@ 0000000180021428     LIBCMT:winapinls.obj
 0002:00006438       ??_C@_1O@GBAPEKMJ@?$AAq?$AAu?$AAz?$AA?9?$AAp?$AAe?$AA?$AA@ 0000000180021438     LIBCMT:winapinls.obj
 0002:00006448       ??_C@_1M@CLGLEFBO@?$AAr?$AAo?$AA?9?$AAr?$AAo?$AA?$AA@ 0000000180021448     LIBCMT:winapinls.obj
 0002:00006458       ??_C@_1M@CEEDODME@?$AAr?$AAu?$AA?9?$AAr?$AAu?$AA?$AA@ 0000000180021458     LIBCMT:winapinls.obj
 0002:00006468       ??_C@_1M@HPKKKMPP@?$AAs?$AAa?$AA?9?$AAi?$AAn?$AA?$AA@ 0000000180021468     LIBCMT:winapinls.obj
 0002:00006478       ??_C@_1M@BKMAIGOJ@?$AAs?$AAe?$AA?9?$AAf?$AAi?$AA?$AA@ 0000000180021478     LIBCMT:winapinls.obj
 0002:00006488       ??_C@_1M@NDPIFLFI@?$AAs?$AAe?$AA?9?$AAn?$AAo?$AA?$AA@ 0000000180021488     LIBCMT:winapinls.obj
 0002:00006498       ??_C@_1M@DANKKHJ@?$AAs?$AAe?$AA?9?$AAs?$AAe?$AA?$AA@ 0000000180021498     LIBCMT:winapinls.obj
 0002:000064a8       ??_C@_1M@PNBLONPJ@?$AAs?$AAk?$AA?9?$AAs?$AAk?$AA?$AA@ 00000001800214a8     LIBCMT:winapinls.obj
 0002:000064b8       ??_C@_1M@LFMODOAL@?$AAs?$AAl?$AA?9?$AAs?$AAi?$AA?$AA@ 00000001800214b8     LIBCMT:winapinls.obj
 0002:000064c8       ??_C@_1O@DFKOMPG@?$AAs?$AAm?$AAa?$AA?9?$AAn?$AAo?$AA?$AA@ 00000001800214c8     LIBCMT:winapinls.obj
 0002:000064d8       ??_C@_1O@NDKPBNNH@?$AAs?$AAm?$AAa?$AA?9?$AAs?$AAe?$AA?$AA@ 00000001800214d8     LIBCMT:winapinls.obj
 0002:000064e8       ??_C@_1O@PLLKBHAB@?$AAs?$AAm?$AAj?$AA?9?$AAn?$AAo?$AA?$AA@ 00000001800214e8     LIBCMT:winapinls.obj
 0002:000064f8       ??_C@_1O@CLEPOGCA@?$AAs?$AAm?$AAj?$AA?9?$AAs?$AAe?$AA?$AA@ 00000001800214f8     LIBCMT:winapinls.obj
 0002:00006508       ??_C@_1O@DLGJGKMK@?$AAs?$AAm?$AAn?$AA?9?$AAf?$AAi?$AA?$AA@ 0000000180021508     LIBCMT:winapinls.obj
 0002:00006518       ??_C@_1O@OJDJGAJC@?$AAs?$AAm?$AAs?$AA?9?$AAf?$AAi?$AA?$AA@ 0000000180021518     LIBCMT:winapinls.obj
 0002:00006528       ??_C@_1M@BOFOGHPB@?$AAs?$AAq?$AA?9?$AAa?$AAl?$AA?$AA@ 0000000180021528     LIBCMT:winapinls.obj
 0002:00006538       ??_C@_1BG@LJBBIPGB@?$AAs?$AAr?$AA?9?$AAb?$AAa?$AA?9?$AAc?$AAy?$AAr?$AAl?$AA?$AA@ 0000000180021538     LIBCMT:winapinls.obj
 0002:00006550       ??_C@_1BG@JLBENFOE@?$AAs?$AAr?$AA?9?$AAb?$AAa?$AA?9?$AAl?$AAa?$AAt?$AAn?$AA?$AA@ 0000000180021550     LIBCMT:winapinls.obj
 0002:00006568       ??_C@_1BG@KODPNHE@?$AAs?$AAr?$AA?9?$AAs?$AAp?$AA?9?$AAc?$AAy?$AAr?$AAl?$AA?$AA@ 0000000180021568     LIBCMT:winapinls.obj
 0002:00006580       ??_C@_1BG@CIOGKHPB@?$AAs?$AAr?$AA?9?$AAs?$AAp?$AA?9?$AAl?$AAa?$AAt?$AAn?$AA?$AA@ 0000000180021580     LIBCMT:winapinls.obj
 0002:00006598       ??_C@_1M@NGFJLMAC@?$AAs?$AAv?$AA?9?$AAf?$AAi?$AA?$AA@ 0000000180021598     LIBCMT:winapinls.obj
 0002:000065a8       ??_C@_1M@MPJEJAJC@?$AAs?$AAv?$AA?9?$AAs?$AAe?$AA?$AA@ 00000001800215a8     LIBCMT:winapinls.obj
 0002:000065b8       ??_C@_1M@MPNDHLFK@?$AAs?$AAw?$AA?9?$AAk?$AAe?$AA?$AA@ 00000001800215b8     LIBCMT:winapinls.obj
 0002:000065c8       ??_C@_1O@KOHBJJI@?$AAs?$AAy?$AAr?$AA?9?$AAs?$AAy?$AA?$AA@ 00000001800215c8     LIBCMT:winapinls.obj
 0002:000065d8       ??_C@_1M@LDCEFHA@?$AAt?$AAa?$AA?9?$AAi?$AAn?$AA?$AA@ 00000001800215d8     LIBCMT:winapinls.obj
 0002:000065e8       ??_C@_1M@CNJOFAK@?$AAt?$AAe?$AA?9?$AAi?$AAn?$AA?$AA@ 00000001800215e8     LIBCMT:winapinls.obj
 0002:000065f8       ??_C@_1M@GNAECACD@?$AAt?$AAh?$AA?9?$AAt?$AAh?$AA?$AA@ 00000001800215f8     LIBCMT:winapinls.obj
 0002:00006608       ??_C@_1M@CHBIHOJO@?$AAt?$AAn?$AA?9?$AAz?$AAa?$AA?$AA@ 0000000180021608     LIBCMT:winapinls.obj
 0002:00006618       ??_C@_1M@GCCMIGPJ@?$AAt?$AAr?$AA?9?$AAt?$AAr?$AA?$AA@ 0000000180021618     LIBCMT:winapinls.obj
 0002:00006628       ??_C@_1M@CELMCNBK@?$AAt?$AAt?$AA?9?$AAr?$AAu?$AA?$AA@ 0000000180021628     LIBCMT:winapinls.obj
 0002:00006638       ??_C@_1M@KLMCELGA@?$AAu?$AAk?$AA?9?$AAu?$AAa?$AA?$AA@ 0000000180021638     LIBCMT:winapinls.obj
 0002:00006648       ??_C@_1M@EPAJJAJF@?$AAu?$AAr?$AA?9?$AAp?$AAk?$AA?$AA@ 0000000180021648     LIBCMT:winapinls.obj
 0002:00006658       ??_C@_1BG@GEGPMCDJ@?$AAu?$AAz?$AA?9?$AAu?$AAz?$AA?9?$AAc?$AAy?$AAr?$AAl?$AA?$AA@ 0000000180021658     LIBCMT:winapinls.obj
 0002:00006670       ??_C@_1BG@EGGKJILM@?$AAu?$AAz?$AA?9?$AAu?$AAz?$AA?9?$AAl?$AAa?$AAt?$AAn?$AA?$AA@ 0000000180021670     LIBCMT:winapinls.obj
 0002:00006688       ??_C@_1M@GFOCLFF@?$AAv?$AAi?$AA?9?$AAv?$AAn?$AA?$AA@ 0000000180021688     LIBCMT:winapinls.obj
 0002:00006698       ??_C@_1M@CPAMEDFI@?$AAx?$AAh?$AA?9?$AAz?$AAa?$AA?$AA@ 0000000180021698     LIBCMT:winapinls.obj
 0002:000066a8       ??_C@_1O@EBKIFIGN@?$AAz?$AAh?$AA?9?$AAc?$AAh?$AAs?$AA?$AA@ 00000001800216a8     LIBCMT:winapinls.obj
 0002:000066b8       ??_C@_1O@NMHPGANE@?$AAz?$AAh?$AA?9?$AAc?$AAh?$AAt?$AA?$AA@ 00000001800216b8     LIBCMT:winapinls.obj
 0002:000066c8       ??_C@_1M@LPINJOMC@?$AAz?$AAh?$AA?9?$AAc?$AAn?$AA?$AA@ 00000001800216c8     LIBCMT:winapinls.obj
 0002:000066d8       ??_C@_1M@OCJEJODD@?$AAz?$AAh?$AA?9?$AAh?$AAk?$AA?$AA@ 00000001800216d8     LIBCMT:winapinls.obj
 0002:000066e8       ??_C@_1M@DNDLJINH@?$AAz?$AAh?$AA?9?$AAm?$AAo?$AA?$AA@ 00000001800216e8     LIBCMT:winapinls.obj
 0002:000066f8       ??_C@_1M@MBFDNDND@?$AAz?$AAh?$AA?9?$AAs?$AAg?$AA?$AA@ 00000001800216f8     LIBCMT:winapinls.obj
 0002:00006708       ??_C@_1M@IMEPLEPE@?$AAz?$AAh?$AA?9?$AAt?$AAw?$AA?$AA@ 0000000180021708     LIBCMT:winapinls.obj
 0002:00006718       ??_C@_1M@BBGHNHJP@?$AAz?$AAu?$AA?9?$AAz?$AAa?$AA?$AA@ 0000000180021718     LIBCMT:winapinls.obj
 0002:00006740       ??_C@_03KHJOGHMM@exp?$AA@  0000000180021740     LIBCMT:fpexcept.obj
 0002:00006744       ??_C@_03JGHBODFD@pow?$AA@  0000000180021744     LIBCMT:fpexcept.obj
 0002:00006748       ??_C@_03MGHMBJCF@log?$AA@  0000000180021748     LIBCMT:fpexcept.obj
 0002:0000674c       ??_C@_05HGHHAHAP@log10?$AA@ 000000018002174c     LIBCMT:fpexcept.obj
 0002:00006754       ??_C@_04COOMCNPB@sinh?$AA@ 0000000180021754     LIBCMT:fpexcept.obj
 0002:0000675c       ??_C@_04HPJJNFIM@cosh?$AA@ 000000018002175c     LIBCMT:fpexcept.obj
 0002:00006764       ??_C@_04FJHINJAO@tanh?$AA@ 0000000180021764     LIBCMT:fpexcept.obj
 0002:0000676c       ??_C@_04FIHNOPOL@asin?$AA@ 000000018002176c     LIBCMT:fpexcept.obj
 0002:00006774       ??_C@_04PDIFKINK@acos?$AA@ 0000000180021774     LIBCMT:fpexcept.obj
 0002:0000677c       ??_C@_04MLLJIGOK@atan?$AA@ 000000018002177c     LIBCMT:fpexcept.obj
 0002:00006784       ??_C@_05KNGEOGJB@atan2?$AA@ 0000000180021784     LIBCMT:fpexcept.obj
 0002:0000678c       ??_C@_04EIAKFFMI@sqrt?$AA@ 000000018002178c     LIBCMT:fpexcept.obj
 0002:00006794       ??_C@_03BLEJJJBH@sin?$AA@  0000000180021794     LIBCMT:fpexcept.obj
 0002:00006798       ??_C@_03LALBNOCG@cos?$AA@  0000000180021798     LIBCMT:fpexcept.obj
 0002:0000679c       ??_C@_03IIINPABG@tan?$AA@  000000018002179c     LIBCMT:fpexcept.obj
 0002:000067a0       ??_C@_04GFPJNGEK@ceil?$AA@ 00000001800217a0     LIBCMT:fpexcept.obj
 0002:000067a8       ??_C@_05PBJFFIGL@floor?$AA@ 00000001800217a8     LIBCMT:fpexcept.obj
 0002:000067b0       ??_C@_04ODHECPBC@fabs?$AA@ 00000001800217b0     LIBCMT:fpexcept.obj
 0002:000067b8       ??_C@_04EHEDPDJG@modf?$AA@ 00000001800217b8     LIBCMT:fpexcept.obj
 0002:000067c0       ??_C@_05CEJMAHNP@ldexp?$AA@ 00000001800217c0     LIBCMT:fpexcept.obj
 0002:000067c8       ??_C@_05KBKMEMPO@_cabs?$AA@ 00000001800217c8     LIBCMT:fpexcept.obj
 0002:000067d0       ??_C@_04KEPJIHGP@fmod?$AA@ 00000001800217d0     LIBCMT:fpexcept.obj
 0002:000067d8       ??_C@_05GKKHEGJL@frexp?$AA@ 00000001800217d8     LIBCMT:fpexcept.obj
 0002:000067e0       ??_C@_03MJLDFKDL@_y0?$AA@  00000001800217e0     LIBCMT:fpexcept.obj
 0002:000067e4       ??_C@_03NAKIGLHK@_y1?$AA@  00000001800217e4     LIBCMT:fpexcept.obj
 0002:000067e8       ??_C@_03ONILCKOB@_yn?$AA@  00000001800217e8     LIBCMT:fpexcept.obj
 0002:000067ec       ??_C@_05JGDBENOH@_logb?$AA@ 00000001800217ec     LIBCMT:fpexcept.obj
 0002:000067f8       ??_C@_0L@KDOEJCKC@_nextafter?$AA@ 00000001800217f8     LIBCMT:fpexcept.obj
 0002:00006b28       ??_C@_08EHJDFFNH@__based?$CI?$AA@ 0000000180021b28     LIBCMT:undname.obj
 0002:00006b38       ??_C@_07KOLFKCDI@__cdecl?$AA@ 0000000180021b38     LIBCMT:undname.obj
 0002:00006b40       ??_C@_08GHMPAG@__pascal?$AA@ 0000000180021b40     LIBCMT:undname.obj
 0002:00006b50       ??_C@_09IFJBGAPI@__stdcall?$AA@ 0000000180021b50     LIBCMT:undname.obj
 0002:00006b60       ??_C@_0L@NPHFGOKO@__thiscall?$AA@ 0000000180021b60     LIBCMT:undname.obj
 0002:00006b70       ??_C@_0L@JMKHOMEK@__fastcall?$AA@ 0000000180021b70     LIBCMT:undname.obj
 0002:00006b80       ??_C@_0N@BCKKPABJ@__vectorcall?$AA@ 0000000180021b80     LIBCMT:undname.obj
 0002:00006b90       ??_C@_09HIJEGCPM@__clrcall?$AA@ 0000000180021b90     LIBCMT:undname.obj
 0002:00006b9c       ??_C@_06GHPCKEAG@__eabi?$AA@ 0000000180021b9c     LIBCMT:undname.obj
 0002:00006ba8       ??_C@_07JOMMBBKO@__ptr64?$AA@ 0000000180021ba8     LIBCMT:undname.obj
 0002:00006bb0       ??_C@_0L@PILCLIHE@__restrict?$AA@ 0000000180021bb0     LIBCMT:undname.obj
 0002:00006bc0       ??_C@_0M@GFIIJFMG@__unaligned?$AA@ 0000000180021bc0     LIBCMT:undname.obj
 0002:00006bd0       ??_C@_09DHDLOLLB@restrict?$CI?$AA@ 0000000180021bd0     LIBCMT:undname.obj
 0002:00006bda       ??_C@_00CNPNBAHC@?$AA@     0000000180021bda     LIBCMT:undname.obj
 0002:00006bdc       ??_C@_04NIHEBCM@?5new?$AA@ 0000000180021bdc     LIBCMT:undname.obj
 0002:00006be8       ??_C@_07FPCDHGMM@?5delete?$AA@ 0000000180021be8     LIBCMT:undname.obj
 0002:00006bf0       ??_C@_01NEMOKFLO@?$DN?$AA@ 0000000180021bf0     LIBCMT:undname.obj
 0002:00006bf4       ??_C@_02GPIOPFAK@?$DO?$DO?$AA@ 0000000180021bf4     LIBCMT:undname.obj
 0002:00006bf8       ??_C@_02FODMEDOG@?$DM?$DM?$AA@ 0000000180021bf8     LIBCMT:undname.obj
 0002:00006bfc       ??_C@_01DCLJPIOD@?$CB?$AA@ 0000000180021bfc     LIBCMT:undname.obj
 0002:00006c00       ??_C@_02EGOFBIJA@?$DN?$DN?$AA@ 0000000180021c00     LIBCMT:undname.obj
 0002:00006c04       ??_C@_02FDNJECIE@?$CB?$DN?$AA@ 0000000180021c04     LIBCMT:undname.obj
 0002:00006c08       ??_C@_02GPECMEKF@?$FL?$FN?$AA@ 0000000180021c08     LIBCMT:undname.obj
 0002:00006c10       ??_C@_08LHJFAFGD@operator?$AA@ 0000000180021c10     LIBCMT:undname.obj
 0002:00006c1c       ??_C@_02HBOOOICD@?9?$DO?$AA@ 0000000180021c1c     LIBCMT:undname.obj
 0002:00006c20       ??_C@_01NBENCBCI@?$CK?$AA@ 0000000180021c20     LIBCMT:undname.obj
 0002:00006c24       ??_C@_02ECNGHCIF@?$CL?$CL?$AA@ 0000000180021c24     LIBCMT:undname.obj
 0002:00006c28       ??_C@_02BAABKJLB@?9?9?$AA@ 0000000180021c28     LIBCMT:undname.obj
 0002:00006c2c       ??_C@_01JOAMLHOP@?9?$AA@   0000000180021c2c     LIBCMT:undname.obj
 0002:00006c30       ??_C@_01MIFGBAGJ@?$CL?$AA@ 0000000180021c30     LIBCMT:undname.obj
 0002:00006c34       ??_C@_01HNPIGOCE@?$CG?$AA@ 0000000180021c34     LIBCMT:undname.obj
 0002:00006c38       ??_C@_03MNHNFDLC@?9?$DO?$CK?$AA@ 0000000180021c38     LIBCMT:undname.obj
 0002:00006c3c       ??_C@_01KMDKNFGN@?1?$AA@   0000000180021c3c     LIBCMT:undname.obj
 0002:00006c40       ??_C@_01FGNFDNOH@?$CF?$AA@ 0000000180021c40     LIBCMT:undname.obj
 0002:00006c44       ??_C@_01MNNFJEPP@?$DM?$AA@ 0000000180021c44     LIBCMT:undname.obj
 0002:00006c48       ??_C@_02EHCHHCKH@?$DM?$DN?$AA@ 0000000180021c48     LIBCMT:undname.obj
 0002:00006c4c       ??_C@_01PPODPGHN@?$DO?$AA@ 0000000180021c4c     LIBCMT:undname.obj
 0002:00006c50       ??_C@_02EEKDKGMJ@?$DO?$DN?$AA@ 0000000180021c50     LIBCMT:undname.obj
 0002:00006c54       ??_C@_01IHBHIGKO@?0?$AA@   0000000180021c54     LIBCMT:undname.obj
 0002:00006c58       ??_C@_02HCKGKOFO@?$CI?$CJ?$AA@ 0000000180021c58     LIBCMT:undname.obj
 0002:00006c5c       ??_C@_01PJKLJHI@?$HO?$AA@  0000000180021c5c     LIBCMT:undname.obj
 0002:00006c60       ??_C@_01JKBOJNNK@?$FO?$AA@ 0000000180021c60     LIBCMT:undname.obj
 0002:00006c64       ??_C@_01DNKMNLPK@?$HM?$AA@ 0000000180021c64     LIBCMT:undname.obj
 0002:00006c68       ??_C@_02PPKAJPJL@?$CG?$CG?$AA@ 0000000180021c68     LIBCMT:undname.obj
 0002:00006c6c       ??_C@_02NONPIBCD@?$HM?$HM?$AA@ 0000000180021c6c     LIBCMT:undname.obj
 0002:00006c70       ??_C@_02FPIMKNGF@?$CK?$DN?$AA@ 0000000180021c70     LIBCMT:undname.obj
 0002:00006c74       ??_C@_02FOEOMHFC@?$CL?$DN?$AA@ 0000000180021c74     LIBCMT:undname.obj
 0002:00006c78       ??_C@_02FKMDLLOA@?9?$DN?$AA@ 0000000180021c78     LIBCMT:undname.obj
 0002:00006c7c       ??_C@_02FJEHGPIO@?1?$DN?$AA@ 0000000180021c7c     LIBCMT:undname.obj
 0002:00006c80       ??_C@_02FENAOKFI@?$CF?$DN?$AA@ 0000000180021c80     LIBCMT:undname.obj
 0002:00006c84       ??_C@_03IKFCCPFF@?$DO?$DO?$DN?$AA@ 0000000180021c84     LIBCMT:undname.obj
 0002:00006c88       ??_C@_03CDNPDDLA@?$DM?$DM?$DN?$AA@ 0000000180021c88     LIBCMT:undname.obj
 0002:00006c8c       ??_C@_02FGJGFEAB@?$CG?$DN?$AA@ 0000000180021c8c     LIBCMT:undname.obj
 0002:00006c90       ??_C@_02DHLNPPGH@?$HM?$DN?$AA@ 0000000180021c90     LIBCMT:undname.obj
 0002:00006c94       ??_C@_02MHEGNOJ@?$FO?$DN?$AA@ 0000000180021c94     LIBCMT:undname.obj
 0002:00006c98       ??_C@_09IFPLHPGF@?$GAvftable?8?$AA@ 0000000180021c98     LIBCMT:undname.obj
 0002:00006ca8       ??_C@_09BLBHBJP@?$GAvbtable?8?$AA@ 0000000180021ca8     LIBCMT:undname.obj
 0002:00006cb8       ??_C@_07FEEIOKP@?$GAvcall?8?$AA@ 0000000180021cb8     LIBCMT:undname.obj
 0002:00006cc0       ??_C@_08LLFFHHDJ@?$GAtypeof?8?$AA@ 0000000180021cc0     LIBCMT:undname.obj
 0002:00006cd0       ??_C@_0BF@KDPPACIK@?$GAlocal?5static?5guard?8?$AA@ 0000000180021cd0     LIBCMT:undname.obj
 0002:00006ce8       ??_C@_08OBABFOLI@?$GAstring?8?$AA@ 0000000180021ce8     LIBCMT:undname.obj
 0002:00006cf8       ??_C@_0BD@JDLKDPAB@?$GAvbase?5destructor?8?$AA@ 0000000180021cf8     LIBCMT:undname.obj
 0002:00006d10       ??_C@_0BN@DEGPLNFK@?$GAvector?5deleting?5destructor?8?$AA@ 0000000180021d10     LIBCMT:undname.obj
 0002:00006d30       ??_C@_0BO@OBMKPJIG@?$GAdefault?5constructor?5closure?8?$AA@ 0000000180021d30     LIBCMT:undname.obj
 0002:00006d50       ??_C@_0BN@IMDCHIKM@?$GAscalar?5deleting?5destructor?8?$AA@ 0000000180021d50     LIBCMT:undname.obj
 0002:00006d70       ??_C@_0BO@PFGOCPJJ@?$GAvector?5constructor?5iterator?8?$AA@ 0000000180021d70     LIBCMT:undname.obj
 0002:00006d90       ??_C@_0BN@LFPFMEDL@?$GAvector?5destructor?5iterator?8?$AA@ 0000000180021d90     LIBCMT:undname.obj
 0002:00006db0       ??_C@_0CE@IKBNEHA@?$GAvector?5vbase?5constructor?5iterat@ 0000000180021db0     LIBCMT:undname.obj
 0002:00006dd8       ??_C@_0BL@NILFHHPC@?$GAvirtual?5displacement?5map?8?$AA@ 0000000180021dd8     LIBCMT:undname.obj
 0002:00006df8       ??_C@_0CB@JONCMFFK@?$GAeh?5vector?5constructor?5iterator?8@ 0000000180021df8     LIBCMT:undname.obj
 0002:00006e20       ??_C@_0CA@GCEOPDGL@?$GAeh?5vector?5destructor?5iterator?8?$AA@ 0000000180021e20     LIBCMT:undname.obj
 0002:00006e40       ??_C@_0CH@OOJPLCPH@?$GAeh?5vector?5vbase?5constructor?5ite@ 0000000180021e40     LIBCMT:undname.obj
 0002:00006e68       ??_C@_0BL@LLKPOHJI@?$GAcopy?5constructor?5closure?8?$AA@ 0000000180021e68     LIBCMT:undname.obj
 0002:00006e88       ??_C@_0BA@KBCDOMBN@?$GAudt?5returning?8?$AA@ 0000000180021e88     LIBCMT:undname.obj
 0002:00006e98       ??_C@_03KLGMFNMG@?$GAEH?$AA@ 0000000180021e98     LIBCMT:undname.obj
 0002:00006e9c       ??_C@_05KHLCHHI@?$GARTTI?$AA@ 0000000180021e9c     LIBCMT:undname.obj
 0002:00006ea8       ??_C@_0BA@KKLDJDLB@?$GAlocal?5vftable?8?$AA@ 0000000180021ea8     LIBCMT:undname.obj
 0002:00006eb8       ??_C@_0CE@IIHCMGGL@?$GAlocal?5vftable?5constructor?5closu@ 0000000180021eb8     LIBCMT:undname.obj
 0002:00006edc       ??_C@_06FHBGPFGH@?5new?$FL?$FN?$AA@ 0000000180021edc     LIBCMT:undname.obj
 0002:00006ee8       ??_C@_09LBNFPBCA@?5delete?$FL?$FN?$AA@ 0000000180021ee8     LIBCMT:undname.obj
 0002:00006ef8       ??_C@_0P@HJKNJFNN@?$GAomni?5callsig?8?$AA@ 0000000180021ef8     LIBCMT:undname.obj
 0002:00006f08       ??_C@_0BL@CNOONJFP@?$GAplacement?5delete?5closure?8?$AA@ 0000000180021f08     LIBCMT:undname.obj
 0002:00006f28       ??_C@_0BN@CKNJLHMB@?$GAplacement?5delete?$FL?$FN?5closure?8?$AA@ 0000000180021f28     LIBCMT:undname.obj
 0002:00006f48       ??_C@_0CG@CFDHKGGD@?$GAmanaged?5vector?5constructor?5iter@ 0000000180021f48     LIBCMT:undname.obj
 0002:00006f70       ??_C@_0CF@IMGKMJNO@?$GAmanaged?5vector?5destructor?5itera@ 0000000180021f70     LIBCMT:undname.obj
 0002:00006f98       ??_C@_0CG@HLDDJMAG@?$GAeh?5vector?5copy?5constructor?5iter@ 0000000180021f98     LIBCMT:undname.obj
 0002:00006fc0       ??_C@_0CM@FCBBDIGB@?$GAeh?5vector?5vbase?5copy?5constructo@ 0000000180021fc0     LIBCMT:undname.obj
 0002:00006ff0       ??_C@_0BL@CLIPGLGB@?$GAdynamic?5initializer?5for?5?8?$AA@ 0000000180021ff0     LIBCMT:undname.obj
 0002:00007010       ??_C@_0CB@PDBIFEP@?$GAdynamic?5atexit?5destructor?5for?5?8@ 0000000180022010     LIBCMT:undname.obj
 0002:00007038       ??_C@_0CD@CGAJBKEJ@?$GAvector?5copy?5constructor?5iterato@ 0000000180022038     LIBCMT:undname.obj
 0002:00007060       ??_C@_0CJ@GJELGAMM@?$GAvector?5vbase?5copy?5constructor?5i@ 0000000180022060     LIBCMT:undname.obj
 0002:00007090       ??_C@_0CL@FGIJHLCE@?$GAmanaged?5vector?5copy?5constructor@ 0000000180022090     LIBCMT:undname.obj
 0002:000070c0       ??_C@_0BM@PMGGMLDN@?$GAlocal?5static?5thread?5guard?8?$AA@ 00000001800220c0     LIBCMT:undname.obj
 0002:000070e0       ??_C@_0BC@DAFEJGAK@?5Type?5Descriptor?8?$AA@ 00000001800220e0     LIBCMT:undname.obj
 0002:000070f8       ??_C@_0BM@LDKODKLH@?5Base?5Class?5Descriptor?5at?5?$CI?$AA@ 00000001800220f8     LIBCMT:undname.obj
 0002:00007118       ??_C@_0BD@LGICGFMM@?5Base?5Class?5Array?8?$AA@ 0000000180022118     LIBCMT:undname.obj
 0002:00007130       ??_C@_0BN@MECKDCOJ@?5Class?5Hierarchy?5Descriptor?8?$AA@ 0000000180022130     LIBCMT:undname.obj
 0002:00007150       ??_C@_0BK@CFCOFLF@?5Complete?5Object?5Locator?8?$AA@ 0000000180022150     LIBCMT:undname.obj
 0002:00007170       __newctype                 0000000180022170     LIBCMT:ctype.obj
 0002:00007470       _wctype                    0000000180022470     LIBCMT:ctype.obj
 0002:00007680       __newclmap                 0000000180022680     LIBCMT:ctype.obj
 0002:00007800       __newcumap                 0000000180022800     LIBCMT:ctype.obj
 0002:00007980       __rg_language_count        0000000180022980     LIBCMT:getqloc.obj
 0002:00007984       __rg_country_count         0000000180022984     LIBCMT:getqloc.obj
 0002:00007988       ??_C@_1BA@BALFACEM@?$AAC?$AAO?$AAN?$AAO?$AAU?$AAT?$AA$?$AA?$AA@ 0000000180022988     LIBCMT:initcon.obj
 0002:00007998       ??_C@_06PGGFOGJG@1?$CDSNAN?$AA@ 0000000180022998     LIBCMT:x10fout.obj
 0002:000079a0       ??_C@_05PHHOCPM@1?$CDIND?$AA@ 00000001800229a0     LIBCMT:x10fout.obj
 0002:000079a8       ??_C@_05DNEBIAHO@1?$CDINF?$AA@ 00000001800229a8     LIBCMT:x10fout.obj
 0002:000079b0       ??_C@_06IMKFLFPG@1?$CDQNAN?$AA@ 00000001800229b0     LIBCMT:x10fout.obj
 0002:000079b8       ??_C@_1DG@OKCGPKIB@?$AAp?$AAe?$AAr?$AAs?$AAi?$AAs?$AAt?$AAe?$AAn?$AAt?$AA?$CI?$AA?$CJ?$AA?4?$AAI?$AAs?$AAN?$AAe?$AAa?$AAr?$AAD?$AAe?$AAa?$AAt?$AAh?$AA?$CI?$AA?$CJ?$AA?$AA@ 00000001800229b8     bson.obj
 0002:000079f0       ??_C@_1CO@EGNPJLKI@?$AAp?$AAe?$AAr?$AAs?$AAi?$AAs?$AAt?$AAe?$AAn?$AAt?$AA?$CI?$AA?$CJ?$AA?4?$AAI?$AAs?$AAE?$AAm?$AAp?$AAt?$AAy?$AA?$CI?$AA?$CJ?$AA?$AA@ 00000001800229f0     bson.obj
 0002:00007a20       ??_C@_1DA@FBGAEOIO@?$AA?$CB?$AAp?$AAe?$AAr?$AAs?$AAi?$AAs?$AAt?$AAe?$AAn?$AAt?$AA?$CI?$AA?$CJ?$AA?4?$AAI?$AAs?$AAE?$AAm?$AAp?$AAt?$AAy?$AA?$CI?$AA?$CJ?$AA?$AA@ 0000000180022a20     bson.obj
 0002:00007a50       ??_C@_1CO@JCKLEFMA@?$AA?$CB?$AAp?$AAe?$AAr?$AAs?$AAi?$AAs?$AAt?$AAe?$AAn?$AAt?$AA?$CI?$AA?$CJ?$AA?4?$AAI?$AAs?$AAW?$AAe?$AAa?$AAk?$AA?$CI?$AA?$CJ?$AA?$AA@ 0000000180022a50     bson.obj
 0002:00007a80       ??_C@_1BE@GMLLOIPJ@?$AAr?$AAe?$AAf?$AAs?$AA_?$AA?5?$AA?$DO?$AA?5?$AA0?$AA?$AA@ 0000000180022a80     bson.obj
 0002:00007a98       ??_C@_1CC@GBFLAAPF@?$AAw?$AAr?$AAa?$AAp?$AA?9?$AA?$DO?$AAr?$AAe?$AAf?$AAs?$AA_?$AA?5?$AA?$DN?$AA?$DN?$AA?5?$AA0?$AA?$AA@ 0000000180022a98     bson.obj
 0002:00007ac0       ??_C@_1DI@ELDBKNAK@?$AAw?$AAr?$AAa?$AAp?$AA?9?$AA?$DO?$AAh?$AAa?$AAn?$AAd?$AAl?$AAe?$AA_?$AA?4?$AAI?$AAs?$AAN?$AAe?$AAa?$AAr?$AAD?$AAe?$AAa?$AAt?$AAh?$AA?$CI?$AA?$CJ?$AA?$AA@ 0000000180022ac0     bson.obj
 0002:00007af8       ??_C@_02GMHACPFF@?$CFu?$AA@ 0000000180022af8     bson.obj
 0002:00007b00       ??_C@_1BBG@MAJONPAP@?$AAE?$AA?3?$AA?2?$AAC?$AAO?$AAD?$AAE?$AA?2?$AAn?$AAo?$AAd?$AAe?$AA?2?$AAn?$AAo?$AAd?$AAe?$AA?9?$AAm?$AAo?$AAn?$AAg?$AAo?$AA?9?$AAb?$AAl?$AAo?$AAg?$AA?2?$AAn?$AAo?$AAd@ 0000000180022b00     bson.obj
 0002:00007c20       ??_C@_1FM@LOELJOFK@?$AAs?$AAi?$AAz?$AAe?$AA?5?$AA?$DM?$AA?$DN?$AA?5?$AAi?$AAm?$AAp?$AA?3?$AA?3?$AAk?$AAM?$AAa?$AAx?$AAL?$AAe?$AAn?$AAg?$AAt?$AAh?$AA?5?$AA?$CG?$AA?$CG?$AA?5?$AA?$CC?$AAt?$AAo?$AAo?$AA?5@ 0000000180022c20     bson.obj
 0002:00007c80       ??_C@_1BCO@LLPLABIO@?$AAe?$AA?3?$AA?2?$AAc?$AAo?$AAd?$AAe?$AA?2?$AAn?$AAo?$AAd?$AAe?$AA?2?$AAn?$AAo?$AAd?$AAe?$AA?9?$AAm?$AAo?$AAn?$AAg?$AAo?$AA?9?$AAb?$AAl?$AAo?$AAg?$AA?2?$AAn?$AAo?$AAd@ 0000000180022c80     bson.obj
 0002:00007db0       ??_C@_1EC@MGGLMBLC@?$AAo?$AAb?$AAj?$AAe?$AAc?$AAt?$AA?9?$AA?$DO?$AAI?$AAn?$AAt?$AAe?$AAr?$AAn?$AAa?$AAl?$AAF?$AAi?$AAe?$AAl?$AAd?$AAC?$AAo?$AAu?$AAn?$AAt?$AA?$CI?$AA?$CJ?$AA?5?$AA?$DO?$AA?5?$AA0@ 0000000180022db0     bson.obj
 0002:00007df8       ??_C@_0DH@NIOPBAHF@document?5is?5larger?5than?5max?5bson@ 0000000180022df8     bson.obj
 0002:00007e30       ??_C@_0L@MJEBIGKE@ERROR?3?5?$CFs?6?$AA@ 0000000180022e30     bson.obj
 0002:00007e3c       ??_C@_04KPGOEBLF@Long?$AA@ 0000000180022e3c     bson.obj
 0002:00007e48       ??_C@_08CMHNALBL@ObjectID?$AA@ 0000000180022e48     bson.obj
 0002:00007e54       ??_C@_06JCOMDNII@Binary?$AA@ 0000000180022e54     bson.obj
 0002:00007e5c       ??_C@_04BCJPDBDA@Code?$AA@ 0000000180022e5c     bson.obj
 0002:00007e64       ??_C@_05OEHIBPMM@DBRef?$AA@ 0000000180022e64     bson.obj
 0002:00007e6c       ??_C@_06CGMNKLGA@Symbol?$AA@ 0000000180022e6c     bson.obj
 0002:00007e74       ??_C@_06NCCPDBPF@Double?$AA@ 0000000180022e74     bson.obj
 0002:00007e80       ??_C@_09KDGENIOP@Timestamp?$AA@ 0000000180022e80     bson.obj
 0002:00007e8c       ??_C@_06LCECLHMO@MinKey?$AA@ 0000000180022e8c     bson.obj
 0002:00007e94       ??_C@_06LBLBFHIB@MaxKey?$AA@ 0000000180022e94     bson.obj
 0002:00007ea0       ??_C@_09BNDOHJJA@_bsontype?$AA@ 0000000180022ea0     bson.obj
 0002:00007eac       ??_C@_04GKMHEKLF@low_?$AA@ 0000000180022eac     bson.obj
 0002:00007eb4       ??_C@_05ODKONCOO@high_?$AA@ 0000000180022eb4     bson.obj
 0002:00007ebc       ??_C@_02EGCJHIOB@id?$AA@   0000000180022ebc     bson.obj
 0002:00007ec0       ??_C@_08OAGMDKAF@position?$AA@ 0000000180022ec0     bson.obj
 0002:00007ed0       ??_C@_08IDIHDCPA@sub_type?$AA@ 0000000180022ed0     bson.obj
 0002:00007edc       ??_C@_06HOHPNJLC@buffer?$AA@ 0000000180022edc     bson.obj
 0002:00007ee4       ??_C@_05MFEJDJP@value?$AA@ 0000000180022ee4     bson.obj
 0002:00007eec       ??_C@_04LBBBCMNL@$ref?$AA@ 0000000180022eec     bson.obj
 0002:00007ef4       ??_C@_03LHHMEGIG@$id?$AA@  0000000180022ef4     bson.obj
 0002:00007ef8       ??_C@_03OJPOHCFD@$db?$AA@  0000000180022ef8     bson.obj
 0002:00007f00       ??_C@_09KPMGAFNI@namespace?$AA@ 0000000180022f00     bson.obj
 0002:00007f0c       ??_C@_02BIKLEMDE@db?$AA@   0000000180022f0c     bson.obj
 0002:00007f10       ??_C@_03PLGJJJLK@oid?$AA@  0000000180022f10     bson.obj
 0002:00007f14       ??_C@_04NDFOBODE@code?$AA@ 0000000180022f14     bson.obj
 0002:00007f1c       ??_C@_05DCCHDMEJ@scope?$AA@ 0000000180022f1c     bson.obj
 0002:00007f24       ??_C@_06GNKBGKCF@toBSON?$AA@ 0000000180022f24     bson.obj
 0002:00007f30       ??_C@_0DB@JFHPKFFF@Failed?5to?5allocate?5ThrowAllocate@ 0000000180022f30     bson.obj
 0002:00007f68       ??_C@_0CD@KLMCKJGL@key?5?$CFs?5must?5not?5contain?5null?5byt@ 0000000180022f68     bson.obj
 0002:00007f90       ??_C@_0BP@CAGHNLOH@key?5?$CFs?5must?5not?5start?5with?5?8$?8?$AA@ 0000000180022f90     bson.obj
 0002:00007fb0       ??_C@_0BM@LKINBHCB@key?5?$CFs?5must?5not?5contain?5?8?4?8?$AA@ 0000000180022fb0     bson.obj
 0002:00007fd0       ??_C@_0CE@GIGLFLEI@Missing?5end?5of?5document?5marker?5?8@ 0000000180022fd0     bson.obj
 0002:00007ff8       ??_C@_0CH@NJGEHNPF@Child?5document?5exceeds?5parent?8s?5@ 0000000180022ff8     bson.obj
 0002:00008020       ??_C@_0BG@FPIHBCPI@Invalid?5key?5for?5array?$AA@ 0000000180023020     bson.obj
 0002:00008038       ??_C@_0CI@OKMCLBNL@Bad?5BSON?3?5Document?5is?5less?5than?5@ 0000000180023038     bson.obj
 0002:00008060       ??_C@_0CD@MMHCGCFM@Bad?5BSON?5Document?3?5illegal?5CStri@ 0000000180023060     bson.obj
 0002:00008090       ??_C@_0EB@BJOKDBFK@Bad?5BSON?5Document?3?5Serialize?5con@ 0000000180023090     bson.obj
 0002:000080d8       ??_C@_0CO@JEFHBMDG@Bad?5BSON?3?5Array?5Document?5is?5less@ 00000001800230d8     bson.obj
 0002:00008108       ??_C@_0DO@HADGHAOK@Bad?5BSON?5Array?3?5Serialize?5consum@ 0000000180023108     bson.obj
 0002:00008148       ??_C@_0BI@GMAEEKGD@Unhandled?5BSON?5Type?3?5?$CFd?$AA@ 0000000180023148     bson.obj
 0002:00008160       ??_C@_04NHGKALPB@BSON?$AA@ 0000000180023160     bson.obj
 0002:00008168       ??_C@_0BE@PNEGGFJE@calculateObjectSize?$AA@ 0000000180023168     bson.obj
 0002:00008180       ??_C@_09HPAMHOHM@serialize?$AA@ 0000000180023180     bson.obj
 0002:00008190       ??_C@_0BM@IFMIBHFM@serializeWithBufferAndIndex?$AA@ 0000000180023190     bson.obj
 0002:000081b0       ??_C@_0M@ONIELNGI@deserialize?$AA@ 00000001800231b0     bson.obj
 0002:000081c0       ??_C@_0BC@FLNDJPJD@deserializeStream?$AA@ 00000001800231c0     bson.obj
 0002:000081d8       ??_C@_0M@JCLOBGDM@maxBSONSize?$AA@ 00000001800231d8     bson.obj
 0002:000081f0       ??_C@_0HA@EFEGDNDG@Missing?5function?5constructor?5for@ 00000001800231f0     bson.obj
 0002:00008260       ??_C@_0BD@PONILMAM@No?5types?5passed?5in?$AA@ 0000000180023260     bson.obj
 0002:00008278       ??_C@_0DD@KPAGCEEP@First?5argument?5passed?5in?5must?5be@ 0000000180023278     bson.obj
 0002:000082b0       ??_C@_0CL@BDBPFPCB@First?5Argument?5must?5be?5a?5Buffer?5@ 00000001800232b0     bson.obj
 0002:000082e0       ??_C@_0N@OGPONINK@promoteLongs?$AA@ 00000001800232e0     bson.obj
 0002:000082f0       ??_C@_0CE@OAJGANLI@corrupt?5bson?5message?5?$DM?55?5bytes?5l@ 00000001800232f0     bson.obj
 0002:00008318       ??_C@_0DG@JPNHGGBJ@Failed?5to?5allocate?5char?5buffer?5f@ 0000000180023318     bson.obj
 0002:00008350       ??_C@_0BJ@BPGENBPL@toBSON?5is?5not?5a?5function?$AA@ 0000000180023350     bson.obj
 0002:00008370       ??_C@_0CJ@IOIJGPAE@toBSON?5function?5did?5not?5return?5a@ 0000000180023370     bson.obj
 0002:000083a0       ??_C@_0GC@EMDPLICH@One?0?5two?5or?5tree?5arguments?5requi@ 00000001800233a0     bson.obj
 0002:00008410       ??_C@_0IJ@FJKBFLAC@One?0?5two?5or?5tree?5arguments?5requi@ 0000000180023410     bson.obj
 0002:000084a0       ??_C@_0IP@LGJAIMN@One?0?5two?0?5tree?5or?5four?5arguments@ 00000001800234a0     bson.obj
 0002:00008530       ??_C@_0CC@CHAPKKEN@Only?5javascript?5objects?5supporte@ 0000000180023530     bson.obj
 0002:00008558       ??_C@_0CB@HKJMBJPL@One?5argument?5required?5?9?5?$FLobject?$FN@ 0000000180023558     bson.obj
 0002:00008580       ??_C@_0CL@FOPJIGAK@Two?5arguments?5required?5?9?5?$FLobject@ 0000000180023580     bson.obj
 0002:000085b0       ??_C@_0DO@CGHHJJO@One?5or?5two?5arguments?5required?5?9?5@ 00000001800235b0     bson.obj
 0002:000085f0       ??_C@_0GL@GNKOPNGK@Four?5or?5five?5parameters?5required@ 00000001800235f0     bson.obj
 0002:00008660       ??_C@_0DI@HFGBJDBF@Four?5parameters?5required?5?$FLobject@ 0000000180023660     bson.obj
 0002:000086a0       ??_C@_0EB@KHAFKEJM@Four?5parameters?5required?5?$FLobject@ 00000001800236a0     bson.obj
 0002:000086e8       ??_C@_0CE@DDJIJBJJ@Serious?5error?5?9?5overflowed?5buffe@ 00000001800236e8     bson.obj
 0002:00008710       ??_C@_0KD@CMIHKGIF@Arguments?5required?5?$CIBuffer?$CIdata?$CJ@ 0000000180023710     bson.obj
 0002:000087b8       ??_C@_0CH@ICIGEHKG@First?5argument?5must?5be?5Buffer?5in@ 00000001800237b8     bson.obj
 0002:000087e0       ??_C@_0DA@MNOAEHLD@Second?5argument?5must?5be?5a?5positi@ 00000001800237e0     bson.obj
 0002:00008810       ??_C@_0EF@HFCMENEJ@Third?5argument?5must?5be?5a?5positiv@ 0000000180023810     bson.obj
 0002:00008860       ??_C@_0EG@IPLADIBO@Fourth?5argument?5must?5be?5an?5array@ 0000000180023860     bson.obj
 0002:000088a8       ??_C@_0CP@IDKHKGMI@Sixth?5argument?5must?5be?5a?5positiv@ 00000001800238a8     bson.obj
 0002:000088d8       ??_C@_0CO@HLNIDHEF@Fifth?5argument?5must?5be?5an?5object@ 00000001800238d8     bson.obj
 0002:00008908       ??_C@_0P@JDMDMKMM@?4?4?2ext?2bson?4cc?$AA@ 0000000180023908     bson.obj
 0002:00008918       ??_C@_04BLFAOJIJ@bson?$AA@ 0000000180023918     bson.obj
 0002:00008920       ??_C@_1PO@JKAFCPIN@?$AAe?$AA?3?$AA?2?$AAc?$AAo?$AAd?$AAe?$AA?2?$AAn?$AAo?$AAd?$AAe?$AA?2?$AAn?$AAo?$AAd?$AAe?$AA?9?$AAm?$AAo?$AAn?$AAg?$AAo?$AA?9?$AAb?$AAl?$AAo?$AAg?$AA?2?$AAn?$AAo?$AAd@ 0000000180023920     bson.obj
 0002:00008a20       ??_C@_1BK@KOGJBIMN@?$AA?$CB?$AAh?$AA?4?$AAI?$AAs?$AAE?$AAm?$AAp?$AAt?$AAy?$AA?$CI?$AA?$CJ?$AA?$AA@ 0000000180023a20     bson.obj
 0002:00008a40       ??_C@_1CE@LNAGEONJ@?$AA?$CB?$AAo?$AAb?$AAj?$AAe?$AAc?$AAt?$AA?4?$AAI?$AAs?$AAE?$AAm?$AAp?$AAt?$AAy?$AA?$CI?$AA?$CJ?$AA?$AA@ 0000000180023a40     bson.obj
 0002:00008b48       ??_7BSON@@6B@              0000000180023b48     bson.obj
 0002:00008b60       ??_7ObjectWrap@Nan@@6B@    0000000180023b60     bson.obj
 0002:00008b78       ??_C@_08HCOMDCCD@iojs?4exe?$AA@ 0000000180023b78     win_delay_load_hook.obj
 0002:00008b88       ??_C@_08JDDNMFDB@node?4exe?$AA@ 0000000180023b88     win_delay_load_hook.obj
 0002:00008d30       _load_config_used          0000000180023d30     LIBCMT:loadcfg.obj
 0002:00008e58       ??_R1A@?0A@EA@exception@std@@8 0000000180023e58     libcpmt:xthrow.obj
 0002:00008e80       ??_R3exception@std@@8      0000000180023e80     libcpmt:xthrow.obj
 0002:00008e98       ??_R2exception@std@@8      0000000180023e98     libcpmt:xthrow.obj
 0002:00008ea8       ??_R4bad_alloc@std@@6B@    0000000180023ea8     libcpmt:xthrow.obj
 0002:00008ed0       ??_R3bad_alloc@std@@8      0000000180023ed0     libcpmt:xthrow.obj
 0002:00008ee8       ??_R2bad_alloc@std@@8      0000000180023ee8     libcpmt:xthrow.obj
 0002:00008f00       ??_R1A@?0A@EA@bad_alloc@std@@8 0000000180023f00     libcpmt:xthrow.obj
 0002:00008f28       ??_R4type_info@@6B@        0000000180023f28     LIBCMT:typinfo.obj
 0002:00008f50       ??_R3type_info@@8          0000000180023f50     LIBCMT:typinfo.obj
 0002:00008f68       ??_R2type_info@@8          0000000180023f68     LIBCMT:typinfo.obj
 0002:00008f78       ??_R1A@?0A@EA@type_info@@8 0000000180023f78     LIBCMT:typinfo.obj
 0002:00008fa0       ??_R4exception@std@@6B@    0000000180023fa0     LIBCMT:stdexcpt.obj
 0002:00008fc8       ??_R4bad_exception@std@@6B@ 0000000180023fc8     LIBCMT:frame.obj
 0002:00008ff0       ??_R3bad_exception@std@@8  0000000180023ff0     LIBCMT:frame.obj
 0002:00009008       ??_R2bad_exception@std@@8  0000000180024008     LIBCMT:frame.obj
 0002:00009020       ??_R1A@?0A@EA@bad_exception@std@@8 0000000180024020     LIBCMT:frame.obj
 0002:00009048       __rtc_iaa                  0000000180024048     LIBCMT:initsect.obj
 0002:00009050       __rtc_izz                  0000000180024050     LIBCMT:initsect.obj
 0002:00009058       __rtc_taa                  0000000180024058     LIBCMT:initsect.obj
 0002:00009060       __rtc_tzz                  0000000180024060     LIBCMT:initsect.obj
 0002:0000a8e8       _TI2?AVbad_alloc@std@@     00000001800258e8     libcpmt:xthrow.obj
 0002:0000a908       _CTA2?AVbad_alloc@std@@    0000000180025908     libcpmt:xthrow.obj
 0002:0000a920       _CT??_R0?AVbad_alloc@std@@@8??0bad_alloc@std@@QEAA@AEBV01@@Z24 0000000180025920     libcpmt:xthrow.obj
 0002:0000a948       _CT??_R0?AVexception@std@@@8??0exception@std@@QEAA@AEBV01@@Z24 0000000180025948     libcpmt:xthrow.obj
 0002:0000a970       _TI2?AVbad_exception@std@@ 0000000180025970     LIBCMT:frame.obj
 0002:0000a990       _CTA2?AVbad_exception@std@@ 0000000180025990     LIBCMT:frame.obj
 0002:0000a9a8       _CT??_R0?AVbad_exception@std@@@8??0bad_exception@std@@QEAA@AEBV01@@Z24 00000001800259a8     LIBCMT:frame.obj
 0002:0000a9d0       _CT??_R0PEAX@88            00000001800259d0     bson.obj
 0002:0000a9f8       _TI2PEAD                   00000001800259f8     bson.obj
 0002:0000aa18       _CT??_R0PEAD@88            0000000180025a18     bson.obj
 0002:0000aa40       _CTA2PEAD                  0000000180025a40     bson.obj
 0002:0000aa54       __DELAY_IMPORT_DESCRIPTOR_node_exe 0000000180025a54     node:node.exe
 0002:0000aa74       __NULL_DELAY_IMPORT_DESCRIPTOR 0000000180025a74     node:node.exe
 0002:0000ad98       \177node_NULL_THUNK_DATA_DLN 0000000180025d98     node:node.exe
 0002:0000c5b0       \177node_NULL_THUNK_DATA_DLB 00000001800275b0     node:node.exe
 0002:0000c8fc       __IMPORT_DESCRIPTOR_KERNEL32 00000001800278fc     kernel32:KERNEL32.dll
 0002:0000c910       __NULL_IMPORT_DESCRIPTOR   0000000180027910     kernel32:KERNEL32.dll
 0003:000001e0       _fltused                   00000001800291e0     LIBCMT:fpinit.obj
 0003:000001e4       _ldused                    00000001800291e4     LIBCMT:fpinit.obj
 0003:000001e8       __security_cookie          00000001800291e8     LIBCMT:gs_cookie.obj
 0003:000001f0       __security_cookie_complement 00000001800291f0     LIBCMT:gs_cookie.obj
 0003:000001f8       __nullstring               00000001800291f8     LIBCMT:output.obj
 0003:00000200       __wnullstring              0000000180029200     LIBCMT:output.obj
 0003:00000210       _sys_nerr                  0000000180029210     LIBCMT:syserr.obj
 0003:00000214       __isa_available            0000000180029214     LIBCMT:cpu_disp.obj
 0003:00000218       __isa_enabled              0000000180029218     LIBCMT:cpu_disp.obj
 0003:0000021c       __flsindex                 000000018002921c     LIBCMT:tidtable.obj
 0003:00000220       __abort_behavior           0000000180029220     LIBCMT:abort.obj
 0003:00000230       _iob                       0000000180029230     LIBCMT:_file.obj
 0003:00000850       _cfltcvt_tab               0000000180029850     LIBCMT:cmiscdat.obj
 0003:000008a0       _mbctype                   00000001800298a0     LIBCMT:mbctype.obj
 0003:000009b0       _mbcasemap                 00000001800299b0     LIBCMT:mbctype.obj
 0003:00000ab0       __initialmbcinfo           0000000180029ab0     LIBCMT:mbctype.obj
 0003:00000dd0       __ptmbcinfo                0000000180029dd0     LIBCMT:mbctype.obj
 0003:00000dd8       __mb_cur_max               0000000180029dd8     LIBCMT:nlsdata.obj
 0003:00000ddc       __wclocalestr              0000000180029ddc     LIBCMT:nlsdata.obj
 0003:00000de0       __lc_time_c                0000000180029de0     LIBCMT:nlsdata.obj
 0003:000010a0       __ptlocinfo                000000018002a0a0     LIBCMT:nlsdata.obj
 0003:000010b0       __initiallocinfo           000000018002a0b0     LIBCMT:nlsdata.obj
 0003:00001208       __globallocalestatus       000000018002a208     LIBCMT:glstatus.obj
 0003:00001220       __badioinfo                000000018002a220     LIBCMT:ioinit.obj
 0003:00001450       _matherr_flag              000000018002a450     LIBCMT:matherr.obj
 0003:00001460       __lconv_c                  000000018002a460     LIBCMT:lconv.obj
 0003:000014f8       __lconv_static_decimal     000000018002a4f8     LIBCMT:lconv.obj
 0003:000014fc       __lconv_static_W_decimal   000000018002a4fc     LIBCMT:lconv.obj
 0003:00001500       __lconv                    000000018002a500     LIBCMT:lconv.obj
 0003:00001508       _pctype                    000000018002a508     LIBCMT:ctype.obj
 0003:00001510       _pwctype                   000000018002a510     LIBCMT:ctype.obj
 0003:00001520       _confh                     000000018002a520     LIBCMT:initcon.obj
 0003:00001528       _d_inf                     000000018002a528     LIBCMT:util.obj
 0003:00001530       _d_ind                     000000018002a530     LIBCMT:util.obj
 0003:00001538       _d_max                     000000018002a538     LIBCMT:util.obj
 0003:00001540       _d_min                     000000018002a540     LIBCMT:util.obj
 0003:00001548       _d_mzero                   000000018002a548     LIBCMT:util.obj
 0003:00001580       _pow10pos                  000000018002a580     LIBCMT:constpow.obj
 0003:000016e0       _pow10neg                  000000018002a6e0     LIBCMT:constpow.obj
 0003:00001840       _HUGE                      000000018002a840     LIBCMT:huge.obj
 0003:00001890       __pfnDliNotifyHook2        000000018002a890     win_delay_load_hook.obj
 0003:00001898       ??_R0?AVbad_alloc@std@@@8  000000018002a898     libcpmt:xthrow.obj
 0003:000018c0       ??_R0?AVexception@std@@@8  000000018002a8c0     libcpmt:xthrow.obj
 0003:000018e8       ??_R0?AVtype_info@@@8      000000018002a8e8     LIBCMT:typinfo.obj
 0003:00001908       ??_R0?AVbad_exception@std@@@8 000000018002a908     LIBCMT:frame.obj
 0003:00001930       ??_R0PEAD@8                000000018002a930     bson.obj
 0003:00001948       ??_R0PEAX@8                000000018002a948     bson.obj
 0003:00001960       __imp_?DecodeBytes@node@@YA_JPEAVIsolate@v8@@V?$Local@VValue@v8@@@3@W4encoding@1@@Z 000000018002a960     node:node.exe
 0003:00001968       __imp_?Encode@node@@YA?AV?$Local@VValue@v8@@@v8@@PEAVIsolate@3@PEBD_KW4encoding@1@@Z 000000018002a968     node:node.exe
 0003:00001970       __imp_?Length@Buffer@node@@YA_KV?$Local@VObject@v8@@@v8@@@Z 000000018002a970     node:node.exe
 0003:00001978       __imp_?Data@Buffer@node@@YAPEADV?$Local@VObject@v8@@@v8@@@Z 000000018002a978     node:node.exe
 0003:00001980       __imp_?HasInstance@Buffer@node@@YA_NV?$Local@VValue@v8@@@v8@@@Z 000000018002a980     node:node.exe
 0003:00001988       __imp_?HasInstance@Buffer@node@@YA_NV?$Local@VObject@v8@@@v8@@@Z 000000018002a988     node:node.exe
 0003:00001990       __imp_?Copy@Buffer@node@@YA?AV?$MaybeLocal@VObject@v8@@@v8@@PEAVIsolate@4@PEBD_K@Z 000000018002a990     node:node.exe
 0003:00001998       __imp_?New@Buffer@node@@YA?AV?$MaybeLocal@VObject@v8@@@v8@@PEAVIsolate@4@_K@Z 000000018002a998     node:node.exe
 0003:000019a0       __imp_?New@Buffer@node@@YA?AV?$MaybeLocal@VObject@v8@@@v8@@PEAVIsolate@4@PEAD_K@Z 000000018002a9a0     node:node.exe
 0003:000019a8       __imp_node_module_register 000000018002a9a8     node:node.exe
 0003:000019b0       __imp_?DecodeWrite@node@@YA_JPEAVIsolate@v8@@PEAD_KV?$Local@VValue@v8@@@3@W4encoding@1@@Z 000000018002a9b0     node:node.exe
 0003:000019b8       __imp_?New@Signature@v8@@SA?AV?$Local@VSignature@v8@@@2@PEAVIsolate@2@V?$Local@VFunctionTemplate@v8@@@2@@Z 000000018002a9b8     node:node.exe
 0003:000019c0       __imp_?New@Date@v8@@SA?AV?$MaybeLocal@VValue@v8@@@2@V?$Local@VContext@v8@@@2@N@Z 000000018002a9c0     node:node.exe
 0003:000019c8       __imp_?ToLocalEmpty@V8@v8@@CAXXZ 000000018002a9c8     node:node.exe
 0003:000019d0       __imp_?FromJustIsNothing@V8@v8@@CAXXZ 000000018002a9d0     node:node.exe
 0003:000019d8       __imp_?ClearWeak@V8@v8@@CAPEAXPEAPEAVObject@internal@2@@Z 000000018002a9d8     node:node.exe
 0003:000019e0       __imp_?MakeWeak@V8@v8@@CAXPEAPEAVObject@internal@2@PEAXP6AXAEBV?$WeakCallbackInfo@X@2@@ZW4WeakCallbackType@2@@Z 000000018002a9e0     node:node.exe
 0003:000019e8       __imp_?DisposeGlobal@V8@v8@@CAXPEAPEAVObject@internal@2@@Z 000000018002a9e8     node:node.exe
 0003:000019f0       __imp_?GlobalizeReference@V8@v8@@CAPEAPEAVObject@internal@2@PEAVIsolate@42@PEAPEAV342@@Z 000000018002a9f0     node:node.exe
 0003:000019f8       __imp_?Escape@EscapableHandleScope@v8@@AEAAPEAPEAVObject@internal@2@PEAPEAV342@@Z 000000018002a9f8     node:node.exe
 0003:00001a00       __imp_??0EscapableHandleScope@v8@@QEAA@PEAVIsolate@1@@Z 000000018002aa00     node:node.exe
 0003:00001a08       __imp_?StrictEquals@Value@v8@@QEBA_NV?$Local@VValue@v8@@@2@@Z 000000018002aa08     node:node.exe
 0003:00001a10       __imp_?Int32Value@Value@v8@@QEBAHXZ 000000018002aa10     node:node.exe
 0003:00001a18       __imp_?Uint32Value@Value@v8@@QEBAIXZ 000000018002aa18     node:node.exe
 0003:00001a20       __imp_?IntegerValue@Value@v8@@QEBA_JXZ 000000018002aa20     node:node.exe
 0003:00001a28       __imp_?NumberValue@Value@v8@@QEBANXZ 000000018002aa28     node:node.exe
 0003:00001a30       __imp_?BooleanValue@Value@v8@@QEBA_NXZ 000000018002aa30     node:node.exe
 0003:00001a38       __imp_?ToInt32@Value@v8@@QEBA?AV?$MaybeLocal@VInt32@v8@@@2@V?$Local@VContext@v8@@@2@@Z 000000018002aa38     node:node.exe
 0003:00001a40       __imp_?ToUint32@Value@v8@@QEBA?AV?$MaybeLocal@VUint32@v8@@@2@V?$Local@VContext@v8@@@2@@Z 000000018002aa40     node:node.exe
 0003:00001a48       __imp_?ToInteger@Value@v8@@QEBA?AV?$MaybeLocal@VInteger@v8@@@2@V?$Local@VContext@v8@@@2@@Z 000000018002aa48     node:node.exe
 0003:00001a50       __imp_?IsRegExp@Value@v8@@QEBA_NXZ 000000018002aa50     node:node.exe
 0003:00001a58       __imp_?IsDate@Value@v8@@QEBA_NXZ 000000018002aa58     node:node.exe
 0003:00001a60       __imp_?IsUint32@Value@v8@@QEBA_NXZ 000000018002aa60     node:node.exe
 0003:00001a68       __imp_?IsNumber@Value@v8@@QEBA_NXZ 000000018002aa68     node:node.exe
 0003:00001a70       __imp_?IsBoolean@Value@v8@@QEBA_NXZ 000000018002aa70     node:node.exe
 0003:00001a78       __imp_?IsObject@Value@v8@@QEBA_NXZ 000000018002aa78     node:node.exe
 0003:00001a80       __imp_?IsArray@Value@v8@@QEBA_NXZ 000000018002aa80     node:node.exe
 0003:00001a88       __imp_?IsFunction@Value@v8@@QEBA_NXZ 000000018002aa88     node:node.exe
 0003:00001a90       __imp_?SetClassName@FunctionTemplate@v8@@QEAAXV?$Local@VString@v8@@@2@@Z 000000018002aa90     node:node.exe
 0003:00001a98       __imp_?PrototypeTemplate@FunctionTemplate@v8@@QEAA?AV?$Local@VObjectTemplate@v8@@@2@XZ 000000018002aa98     node:node.exe
 0003:00001aa0       __imp_?InstanceTemplate@FunctionTemplate@v8@@QEAA?AV?$Local@VObjectTemplate@v8@@@2@XZ 000000018002aaa0     node:node.exe
 0003:00001aa8       __imp_?GetFunction@FunctionTemplate@v8@@QEAA?AV?$Local@VFunction@v8@@@2@XZ 000000018002aaa8     node:node.exe
 0003:00001ab0       __imp_?GetFunction@FunctionTemplate@v8@@QEAA?AV?$MaybeLocal@VFunction@v8@@@2@V?$Local@VContext@v8@@@2@@Z 000000018002aab0     node:node.exe
 0003:00001ab8       __imp_?New@FunctionTemplate@v8@@SA?AV?$Local@VFunctionTemplate@v8@@@2@PEAVIsolate@2@P6AXAEBV?$FunctionCallbackInfo@VValue@v8@@@2@@ZV?$Local@VValue@v8@@@2@V?$Local@VSignature@v8@@@2@H@Z 000000018002aab8     node:node.exe
 0003:00001ac0       __imp_?Error@Exception@v8@@SA?AV?$Local@VValue@v8@@@2@V?$Local@VString@v8@@@2@@Z 000000018002aac0     node:node.exe
 0003:00001ac8       __imp_?TypeError@Exception@v8@@SA?AV?$Local@VValue@v8@@@2@V?$Local@VString@v8@@@2@@Z 000000018002aac8     node:node.exe
 0003:00001ad0       __imp_?NewFromTwoByte@String@v8@@SA?AV?$MaybeLocal@VString@v8@@@2@PEAVIsolate@2@PEBGW4NewStringType@2@H@Z 000000018002aad0     node:node.exe
 0003:00001ad8       __imp_?NewFromUtf8@String@v8@@SA?AV?$MaybeLocal@VString@v8@@@2@PEAVIsolate@2@PEBDW4NewStringType@2@H@Z 000000018002aad8     node:node.exe
 0003:00001ae0       __imp_?WriteUtf8@String@v8@@QEBAHPEADHPEAHH@Z 000000018002aae0     node:node.exe
 0003:00001ae8       __imp_?Write@String@v8@@QEBAHPEAGHHH@Z 000000018002aae8     node:node.exe
 0003:00001af0       __imp_?Utf8Length@String@v8@@QEBAHXZ 000000018002aaf0     node:node.exe
 0003:00001af8       __imp_?New@Array@v8@@SA?AV?$Local@VArray@v8@@@2@PEAVIsolate@2@H@Z 000000018002aaf8     node:node.exe
 0003:00001b00       __imp_?Length@Array@v8@@QEBAIXZ 000000018002ab00     node:node.exe
 0003:00001b08       __imp_?CreateHandle@HandleScope@v8@@KAPEAPEAVObject@internal@2@PEAVIsolate@42@PEAV342@@Z 000000018002ab08     node:node.exe
 0003:00001b10       __imp_?CreateHandle@HandleScope@v8@@CAPEAPEAVObject@internal@2@PEAVHeapObject@42@PEAV342@@Z 000000018002ab10     node:node.exe
 0003:00001b18       __imp_??1HandleScope@v8@@QEAA@XZ 000000018002ab18     node:node.exe
 0003:00001b20       __imp_??0HandleScope@v8@@QEAA@PEAVIsolate@1@@Z 000000018002ab20     node:node.exe
 0003:00001b28       __imp_?New@Number@v8@@SA?AV?$Local@VNumber@v8@@@2@PEAVIsolate@2@N@Z 000000018002ab28     node:node.exe
 0003:00001b30       __imp_?Value@Boolean@v8@@QEBA_NXZ 000000018002ab30     node:node.exe
 0003:00001b38       __imp_?SlowGetAlignedPointerFromInternalField@Object@v8@@AEAAPEAXH@Z 000000018002ab38     node:node.exe
 0003:00001b40       __imp_?SlowGetInternalField@Object@v8@@AEAA?AV?$Local@VValue@v8@@@2@H@Z 000000018002ab40     node:node.exe
 0003:00001b48       __imp_?New@Object@v8@@SA?AV?$Local@VObject@v8@@@2@PEAVIsolate@2@@Z 000000018002ab48     node:node.exe
 0003:00001b50       __imp_?SetAlignedPointerInInternalField@Object@v8@@QEAAXHPEAX@Z 000000018002ab50     node:node.exe
 0003:00001b58       __imp_?SetInternalField@Object@v8@@QEAAXHV?$Local@VValue@v8@@@2@@Z 000000018002ab58     node:node.exe
 0003:00001b60       __imp_?InternalFieldCount@Object@v8@@QEAAHXZ 000000018002ab60     node:node.exe
 0003:00001b68       __imp_?GetOwnPropertyNames@Object@v8@@QEAA?AV?$Local@VArray@v8@@@2@XZ 000000018002ab68     node:node.exe
 0003:00001b70       __imp_?GetPropertyNames@Object@v8@@QEAA?AV?$Local@VArray@v8@@@2@XZ 000000018002ab70     node:node.exe
 0003:00001b78       __imp_?Has@Object@v8@@QEAA?AV?$Maybe@_N@2@V?$Local@VContext@v8@@@2@V?$Local@VValue@v8@@@2@@Z 000000018002ab78     node:node.exe
 0003:00001b80       __imp_?Get@Object@v8@@QEAA?AV?$Local@VValue@v8@@@2@V32@@Z 000000018002ab80     node:node.exe
 0003:00001b88       __imp_?Get@Object@v8@@QEAA?AV?$MaybeLocal@VValue@v8@@@2@V?$Local@VContext@v8@@@2@V?$Local@VValue@v8@@@2@@Z 000000018002ab88     node:node.exe
 0003:00001b90       __imp_?Get@Object@v8@@QEAA?AV?$MaybeLocal@VValue@v8@@@2@V?$Local@VContext@v8@@@2@I@Z 000000018002ab90     node:node.exe
 0003:00001b98       __imp_?ForceSet@Object@v8@@QEAA_NV?$Local@VValue@v8@@@2@0W4PropertyAttribute@2@@Z 000000018002ab98     node:node.exe
 0003:00001ba0       __imp_?Set@Object@v8@@QEAA_NIV?$Local@VValue@v8@@@2@@Z 000000018002aba0     node:node.exe
 0003:00001ba8       __imp_?Set@Template@v8@@QEAAXV?$Local@VName@v8@@@2@V?$Local@VData@v8@@@2@W4PropertyAttribute@2@@Z 000000018002aba8     node:node.exe
 0003:00001bb0       __imp_?SetInternalFieldCount@ObjectTemplate@v8@@QEAAXH@Z 000000018002abb0     node:node.exe
 0003:00001bb8       __imp_?NewInstance@ObjectTemplate@v8@@QEAA?AV?$MaybeLocal@VObject@v8@@@2@V?$Local@VContext@v8@@@2@@Z 000000018002abb8     node:node.exe
 0003:00001bc0       __imp_?New@ObjectTemplate@v8@@SA?AV?$Local@VObjectTemplate@v8@@@2@PEAVIsolate@2@V?$Local@VFunctionTemplate@v8@@@2@@Z 000000018002abc0     node:node.exe
 0003:00001bc8       __imp_?NewFromUnsigned@Integer@v8@@SA?AV?$Local@VInteger@v8@@@2@PEAVIsolate@2@I@Z 000000018002abc8     node:node.exe
 0003:00001bd0       __imp_?New@Integer@v8@@SA?AV?$Local@VInteger@v8@@@2@PEAVIsolate@2@H@Z 000000018002abd0     node:node.exe
 0003:00001bd8       __imp_?GetName@Function@v8@@QEBA?AV?$Local@VValue@v8@@@2@XZ 000000018002abd8     node:node.exe
 0003:00001be0       __imp_?SetName@Function@v8@@QEAAXV?$Local@VString@v8@@@2@@Z 000000018002abe0     node:node.exe
 0003:00001be8       __imp_?Call@Function@v8@@QEAA?AV?$Local@VValue@v8@@@2@V32@HQEAV32@@Z 000000018002abe8     node:node.exe
 0003:00001bf0       __imp_?NewInstance@Function@v8@@QEBA?AV?$Local@VObject@v8@@@2@HQEAV?$Local@VValue@v8@@@2@@Z 000000018002abf0     node:node.exe
 0003:00001bf8       __imp_?NewInstance@Function@v8@@QEBA?AV?$Local@VObject@v8@@@2@XZ 000000018002abf8     node:node.exe
 0003:00001c00       __imp_?ThrowException@Isolate@v8@@QEAA?AV?$Local@VValue@v8@@@2@V32@@Z 000000018002ac00     node:node.exe
 0003:00001c08       __imp_?GetCurrentContext@Isolate@v8@@QEAA?AV?$Local@VContext@v8@@@2@XZ 000000018002ac08     node:node.exe
 0003:00001c10       __imp_?GetCurrent@Isolate@v8@@SAPEAV12@XZ 000000018002ac10     node:node.exe
 0003:00001c18       __imp_?GetFlags@RegExp@v8@@QEBA?AW4Flags@12@XZ 000000018002ac18     node:node.exe
 0003:00001c20       __imp_?GetSource@RegExp@v8@@QEBA?AV?$Local@VString@v8@@@2@XZ 000000018002ac20     node:node.exe
 0003:00001c28       __imp_?New@RegExp@v8@@SA?AV?$MaybeLocal@VRegExp@v8@@@2@V?$Local@VContext@v8@@@2@V?$Local@VString@v8@@@2@W4Flags@12@@Z 000000018002ac28     node:node.exe
 0003:00001c30       __imp_?Value@External@v8@@QEBAPEAXXZ 000000018002ac30     node:node.exe
 0003:00001c38       __imp_?New@External@v8@@SA?AV?$Local@VExternal@v8@@@2@PEAVIsolate@2@PEAX@Z 000000018002ac38     node:node.exe
 0003:00001c40       __imp_?ToObject@Value@v8@@QEBA?AV?$Local@VObject@v8@@@2@XZ 000000018002ac40     node:node.exe
 0003:00001c48       __imp_?ToString@Value@v8@@QEBA?AV?$Local@VString@v8@@@2@XZ 000000018002ac48     node:node.exe
 0003:00001c50       __imp_?ToBoolean@Value@v8@@QEBA?AV?$Local@VBoolean@v8@@@2@XZ 000000018002ac50     node:node.exe
 0003:00001c58       __imp_??1EscapableHandleScope@v8@@QEAA@XZ 000000018002ac58     node:node.exe
 0003:00001c60       \177node_NULL_THUNK_DATA_DLA 000000018002ac60     node:node.exe
 0003:00001c80       __hmod__node_exe           000000018002ac80     node:node.exe
 0003:00001c98       _C_Exit_Done               000000018002ac98     LIBCMT:crt0dat.obj
 0003:00001c9c       __argc                     000000018002ac9c     LIBCMT:crt0dat.obj
 0003:00001ca0       __argv                     000000018002aca0     LIBCMT:crt0dat.obj
 0003:00001ca8       __wargv                    000000018002aca8     LIBCMT:crt0dat.obj
 0003:00001cb0       _environ                   000000018002acb0     LIBCMT:crt0dat.obj
 0003:00001cb8       _wenviron                  000000018002acb8     LIBCMT:crt0dat.obj
 0003:00001cc0       _pgmptr                    000000018002acc0     LIBCMT:crt0dat.obj
 0003:00001cc8       _wpgmptr                   000000018002acc8     LIBCMT:crt0dat.obj
 0003:00001cd0       _umaskval                  000000018002acd0     LIBCMT:crt0dat.obj
 0003:00001cd4       _exitflag                  000000018002acd4     LIBCMT:crt0dat.obj
 0003:00001cd8       _C_Termination_Done        000000018002acd8     LIBCMT:crt0dat.obj
 0003:00001ce0       __winitenv                 000000018002ace0     LIBCMT:crt0dat.obj
 0003:00001ce8       __initenv                  000000018002ace8     LIBCMT:crt0dat.obj
 0003:00001cf8       _aenvptr                   000000018002acf8     LIBCMT:dllcrt0.obj
 0003:00001d00       _wenvptr                   000000018002ad00     LIBCMT:dllcrt0.obj
 0003:00001d08       __fastflag                 000000018002ad08     LIBCMT:fpinit.obj
 0003:00002288       __pInvalidArgHandler       000000018002b288     LIBCMT:invarg.obj
 0003:00002290       __favor                    000000018002b290     LIBCMT:cpu_disp.obj
 0003:00002298       _crtheap                   000000018002b298     LIBCMT:heapinit.obj
 0003:000022a0       ?_pnhHeap@@3P6AH_K@ZEA     000000018002b2a0     LIBCMT:handler.obj
 0003:000022b0       __app_type                 000000018002b2b0     LIBCMT:crt0msg.obj
 0003:000028e8       _newmode                   000000018002b8e8     LIBCMT:_newmode.obj
 0003:000028ec       __error_mode               000000018002b8ec     LIBCMT:errmode.obj
 0003:000028f0       _cflush                    000000018002b8f0     LIBCMT:_file.obj
 0003:00002948       _maxwait                   000000018002b948     LIBCMT:crtheap.obj
 0003:00002950       _stdbuf                    000000018002b950     LIBCMT:_sftbuf.obj
 0003:00002960       __pPurecall                000000018002b960     LIBCMT:inithelp.obj
 0003:00002bb0       ?__pInconsistency@@3P6AXXZEA 000000018002bbb0     LIBCMT:hooks.obj
 0003:00002bc0       __mbcodepage               000000018002bbc0     LIBCMT:mbctype.obj
 0003:00002bc4       __ismbcodepage             000000018002bbc4     LIBCMT:mbctype.obj
 0003:00002bc8       __mbulinfo                 000000018002bbc8     LIBCMT:mbctype.obj
 0003:00002bd8       __mblocalename             000000018002bbd8     LIBCMT:mbctype.obj
 0003:00002be4       __locale_changed           000000018002bbe4     LIBCMT:wsetloca.obj
 0003:00002bf0       __pioinfo                  000000018002bbf0     LIBCMT:ioinit.obj
 0003:00002ef8       ?g_OutOfMemoryExceptionCallback@@3P6APEAXXZEA 000000018002bef8     LIBCMT:frame.obj
 0003:00002f08       ?m_pGetParameter@UnDecorator@@0P6APEADJ@ZEA 000000018002bf08     LIBCMT:undname.obj
 0003:00002f10       ?pArgList@UnDecorator@@0PEAVReplicator@@EA 000000018002bf10     LIBCMT:undname.obj
 0003:00002f18       ?pZNameList@UnDecorator@@0PEAVReplicator@@EA 000000018002bf18     LIBCMT:undname.obj
 0003:00002f20       ?pTemplateArgList@UnDecorator@@0PEAVReplicator@@EA 000000018002bf20     LIBCMT:undname.obj
 0003:00002f28       ?gName@UnDecorator@@0PEBDEB 000000018002bf28     LIBCMT:undname.obj
 0003:00002f30       ?name@UnDecorator@@0PEBDEB 000000018002bf30     LIBCMT:undname.obj
 0003:00002f38       ?outputString@UnDecorator@@0PEADEA 000000018002bf38     LIBCMT:undname.obj
 0003:00002f40       ?maxStringLength@UnDecorator@@0HA 000000018002bf40     LIBCMT:undname.obj
 0003:00002f44       ?disableFlags@UnDecorator@@0KA 000000018002bf44     LIBCMT:undname.obj
 0003:00002f48       ?fExplicitTemplateParams@UnDecorator@@0_NA 000000018002bf48     LIBCMT:undname.obj
 0003:00002f49       ?fGetTemplateArgumentList@UnDecorator@@0_NA 000000018002bf49     LIBCMT:undname.obj
 0003:00002f78       __lconv_static_null        000000018002bf78     LIBCMT:lconv.obj
 0003:00002f7c       __lconv_static_W_null      000000018002bf7c     LIBCMT:lconv.obj
 0003:00002f80       _outputformat              000000018002bf80     LIBCMT:outputformat.obj
 0003:00002f88       __pfnDliFailureHook2       000000018002bf88     DelayImp:delayhk1.obj
 0003:00002f90       ?id@?$num_put@_WV?$back_insert_iterator@V?$basic_string@_WU?$char_traits@_W@std@@V?$allocator@_W@2@@std@@@std@@@std@@2V0locale@2@A 000000018002bf90     bson.obj
 0003:00002f98       ?_System_object@?$_Error_objects@H@std@@2V_System_error_category@2@A 000000018002bf98     bson.obj
 0003:00002fa0       ?id@?$numpunct@_W@std@@2V0locale@2@A 000000018002bfa0     bson.obj
 0003:00002fa8       ?id@?$num_put@DV?$back_insert_iterator@V?$basic_string@DU?$char_traits@D@std@@V?$allocator@D@2@@std@@@std@@@std@@2V0locale@2@A 000000018002bfa8     bson.obj
 0003:00002fb0       ?_Iostream_object@?$_Error_objects@H@std@@2V_Iostream_error_category@2@A 000000018002bfb0     bson.obj
 0003:00002fc0       ?constructor_template@BSON@@2V?$Persistent@VFunctionTemplate@v8@@V?$NonCopyablePersistentTraits@VFunctionTemplate@v8@@@2@@Nan@@A 000000018002bfc0     bson.obj
 0003:00002fc8       ?_Generic_object@?$_Error_objects@H@std@@2V_Generic_error_category@2@A 000000018002bfc8     bson.obj
 0003:00002fd0       ?id@?$numpunct@D@std@@2V0locale@2@A 000000018002bfd0     bson.obj
 0003:00002fd8       _debugger_hook_dummy       000000018002bfd8     <common>
 0003:00002fdc       _nhandle                   000000018002bfdc     <common>
 0003:00002fe0       encodedKERNEL32Functions   000000018002bfe0     <common>
 0003:000030e8       __piob                     000000018002c0e8     <common>
 0003:000030f0       _nstream                   000000018002c0f0     <common>
 0003:00003100       _bufin                     000000018002c100     <common>
 0003:00004100       _acmdln                    000000018002d100     <common>
 0003:00004108       __dyn_tls_init_callback    000000018002d108     <common>
 0003:00004110       __onexitend                000000018002d110     <common>
 0003:00004118       __onexitbegin              000000018002d118     <common>
 0003:00004120       __mbctype_initialized      000000018002d120     <common>
 0003:00004124       __env_initialized          000000018002d124     <common>

 entry point at        0001:0000abd0

 Static symbols

 0000:fffce000       .debug$S                   0000000180000000     kernel32:KERNEL32.dll
 0000:fffce000       .debug$S                   0000000180000000     kernel32:KERNEL32.dll
 0000:fffce000       .debug$S                   0000000180000000     kernel32:KERNEL32.dll
 0000:fffce000       .debug$S                   0000000180000000     node:node.exe
 0000:fffce000       .debug$S                   0000000180000000     kernel32:KERNEL32.dll
 0000:fffce000       .debug$S                   0000000180000000     kernel32:KERNEL32.dll
 0000:fffce000       .debug$S                   0000000180000000     kernel32:KERNEL32.dll
 0000:fffce000       .debug$S                   0000000180000000     kernel32:KERNEL32.dll
 0000:fffce000       .debug$S                   0000000180000000     kernel32:KERNEL32.dll
 0000:fffce000       .debug$S                   0000000180000000     kernel32:KERNEL32.dll
 0000:fffce000       .debug$S                   0000000180000000     kernel32:KERNEL32.dll
 0000:fffce000       .debug$S                   0000000180000000     kernel32:KERNEL32.dll
 0000:fffce000       .debug$S                   0000000180000000     node:node.exe
 0000:fffce000       .debug$S                   0000000180000000     kernel32:KERNEL32.dll
 0000:fffce000       .debug$S                   0000000180000000     kernel32:KERNEL32.dll
 0000:fffce000       .debug$S                   0000000180000000     node:node.exe
 0000:fffce000       .debug$S                   0000000180000000     node:node.exe
 0000:fffce000       .debug$S                   0000000180000000     node:node.exe
 0000:fffce000       .debug$S                   0000000180000000     node:node.exe
 0000:fffce000       .debug$S                   0000000180000000     node:node.exe
 0000:fffce000       .debug$S                   0000000180000000     node:node.exe
 0000:fffce000       .debug$S                   0000000180000000     node:node.exe
 0000:fffce000       .debug$S                   0000000180000000     node:node.exe
 0000:fffce000       .debug$S                   0000000180000000     node:node.exe
 0000:fffce000       .debug$S                   0000000180000000     node:node.exe
 0000:fffce000       .debug$S                   0000000180000000     node:node.exe
 0000:fffce000       .debug$S                   0000000180000000     node:node.exe
 0000:fffce000       .debug$S                   0000000180000000     node:node.exe
 0000:fffce000       .debug$S                   0000000180000000     node:node.exe
 0000:fffce000       .debug$S                   0000000180000000     kernel32:KERNEL32.dll
 0000:fffce000       .debug$S                   0000000180000000     node:node.exe
 0000:fffce000       .debug$S                   0000000180000000     kernel32:KERNEL32.dll
 0000:fffce000       .debug$S                   0000000180000000     node:node.exe
 0000:fffce000       .debug$S                   0000000180000000     kernel32:KERNEL32.dll
 0000:fffce000       .debug$S                   0000000180000000     node:node.exe
 0000:fffce000       .debug$S                   0000000180000000     node:node.exe
 0000:fffce000       .debug$S                   0000000180000000     node:node.exe
 0000:fffce000       .debug$S                   0000000180000000     node:node.exe
 0000:fffce000       .debug$S                   0000000180000000     kernel32:KERNEL32.dll
 0000:fffce000       .debug$S                   0000000180000000     kernel32:KERNEL32.dll
 0000:fffce000       .debug$S                   0000000180000000     kernel32:KERNEL32.dll
 0000:fffce000       .debug$S                   0000000180000000     kernel32:KERNEL32.dll
 0000:fffce000       .debug$S                   0000000180000000     kernel32:KERNEL32.dll
 0000:fffce000       .debug$S                   0000000180000000     kernel32:KERNEL32.dll
 0000:fffce000       .debug$S                   0000000180000000     kernel32:KERNEL32.dll
 0000:fffce000       .debug$S                   0000000180000000     kernel32:KERNEL32.dll
 0000:fffce000       .debug$S                   0000000180000000     kernel32:KERNEL32.dll
 0000:fffce000       .debug$S                   0000000180000000     kernel32:KERNEL32.dll
 0000:fffce000       .debug$S                   0000000180000000     kernel32:KERNEL32.dll
 0000:fffce000       .debug$S                   0000000180000000     kernel32:KERNEL32.dll
 0000:fffce000       .debug$S                   0000000180000000     kernel32:KERNEL32.dll
 0000:fffce000       .debug$S                   0000000180000000     kernel32:KERNEL32.dll
 0000:fffce000       .debug$S                   0000000180000000     kernel32:KERNEL32.dll
 0000:fffce000       .debug$S                   0000000180000000     kernel32:KERNEL32.dll
 0000:fffce000       .debug$S                   0000000180000000     kernel32:KERNEL32.dll
 0000:fffce000       .debug$S                   0000000180000000     kernel32:KERNEL32.dll
 0000:fffce000       .debug$S                   0000000180000000     kernel32:KERNEL32.dll
 0000:fffce000       .debug$S                   0000000180000000     kernel32:KERNEL32.dll
 0000:fffce000       .debug$S                   0000000180000000     kernel32:KERNEL32.dll
 0000:fffce000       .debug$S                   0000000180000000     kernel32:KERNEL32.dll
 0000:fffce000       .debug$S                   0000000180000000     kernel32:KERNEL32.dll
 0000:fffce000       .debug$S                   0000000180000000     kernel32:KERNEL32.dll
 0000:fffce000       .debug$S                   0000000180000000     kernel32:KERNEL32.dll
 0000:fffce000       .debug$S                   0000000180000000     kernel32:KERNEL32.dll
 0000:fffce000       .debug$S                   0000000180000000     kernel32:KERNEL32.dll
 0000:fffce000       .debug$S                   0000000180000000     kernel32:KERNEL32.dll
 0000:fffce000       .debug$S                   0000000180000000     kernel32:KERNEL32.dll
 0000:fffce000       .debug$S                   0000000180000000     kernel32:KERNEL32.dll
 0000:fffce000       .debug$S                   0000000180000000     kernel32:KERNEL32.dll
 0000:fffce000       .debug$S                   0000000180000000     kernel32:KERNEL32.dll
 0000:fffce000       .debug$S                   0000000180000000     kernel32:KERNEL32.dll
 0000:fffce000       .debug$S                   0000000180000000     kernel32:KERNEL32.dll
 0000:fffce000       .debug$S                   0000000180000000     kernel32:KERNEL32.dll
 0000:fffce000       .debug$S                   0000000180000000     kernel32:KERNEL32.dll
 0000:fffce000       .debug$S                   0000000180000000     kernel32:KERNEL32.dll
 0000:fffce000       .debug$S                   0000000180000000     kernel32:KERNEL32.dll
 0000:fffce000       .debug$S                   0000000180000000     kernel32:KERNEL32.dll
 0000:fffce000       .debug$S                   0000000180000000     kernel32:KERNEL32.dll
 0000:fffce000       .debug$S                   0000000180000000     kernel32:KERNEL32.dll
 0000:fffce000       .debug$S                   0000000180000000     kernel32:KERNEL32.dll
 0000:fffce000       .debug$S                   0000000180000000     kernel32:KERNEL32.dll
 0000:fffce000       .debug$S                   0000000180000000     kernel32:KERNEL32.dll
 0000:fffce000       .debug$S                   0000000180000000     kernel32:KERNEL32.dll
 0000:fffce000       .debug$S                   0000000180000000     kernel32:KERNEL32.dll
 0000:fffce000       .debug$S                   0000000180000000     kernel32:KERNEL32.dll
 0000:fffce000       .debug$S                   0000000180000000     kernel32:KERNEL32.dll
 0000:fffce000       .debug$S                   0000000180000000     kernel32:KERNEL32.dll
 0000:fffce000       .debug$S                   0000000180000000     kernel32:KERNEL32.dll
 0000:fffce000       .debug$S                   0000000180000000     kernel32:KERNEL32.dll
 0000:fffce000       .debug$S                   0000000180000000     kernel32:KERNEL32.dll
 0000:fffce000       .debug$S                   0000000180000000     kernel32:KERNEL32.dll
 0000:fffce000       .debug$S                   0000000180000000     kernel32:KERNEL32.dll
 0000:fffce000       .debug$S                   0000000180000000     kernel32:KERNEL32.dll
 0000:fffce000       .debug$S                   0000000180000000     kernel32:KERNEL32.dll
 0000:fffce000       .debug$S                   0000000180000000     kernel32:KERNEL32.dll
 0000:fffce000       .debug$S                   0000000180000000     kernel32:KERNEL32.dll
 0000:fffce000       .debug$S                   0000000180000000     kernel32:KERNEL32.dll
 0000:fffce000       .debug$S                   0000000180000000     kernel32:KERNEL32.dll
 0000:fffce000       .debug$S                   0000000180000000     kernel32:KERNEL32.dll
 0000:fffce000       .debug$S                   0000000180000000     kernel32:KERNEL32.dll
 0000:fffce000       .debug$S                   0000000180000000     kernel32:KERNEL32.dll
 0000:fffce000       .debug$S                   0000000180000000     kernel32:KERNEL32.dll
 0000:fffce000       .debug$S                   0000000180000000     kernel32:KERNEL32.dll
 0000:fffce000       .debug$S                   0000000180000000     kernel32:KERNEL32.dll
 0000:fffce000       .debug$S                   0000000180000000     node:node.exe
 0000:fffce000       .debug$S                   0000000180000000     node:node.exe
 0000:fffce000       .debug$S                   0000000180000000     node:node.exe
 0000:fffce000       .debug$S                   0000000180000000     node:node.exe
 0000:fffce000       .debug$S                   0000000180000000     node:node.exe
 0000:fffce000       .debug$S                   0000000180000000     node:node.exe
 0000:fffce000       .debug$S                   0000000180000000     node:node.exe
 0000:fffce000       .debug$S                   0000000180000000     node:node.exe
 0000:fffce000       .debug$S                   0000000180000000     node:node.exe
 0000:fffce000       .debug$S                   0000000180000000     node:node.exe
 0000:fffce000       .debug$S                   0000000180000000     node:node.exe
 0000:fffce000       .debug$S                   0000000180000000     node:node.exe
 0000:fffce000       .debug$S                   0000000180000000     node:node.exe
 0000:fffce000       .debug$S                   0000000180000000     node:node.exe
 0000:fffce000       .debug$S                   0000000180000000     node:node.exe
 0000:fffce000       .debug$S                   0000000180000000     node:node.exe
 0000:fffce000       .debug$S                   0000000180000000     node:node.exe
 0000:fffce000       .debug$S                   0000000180000000     node:node.exe
 0000:fffce000       .debug$S                   0000000180000000     node:node.exe
 0000:fffce000       .debug$S                   0000000180000000     node:node.exe
 0000:fffce000       .debug$S                   0000000180000000     node:node.exe
 0000:fffce000       .debug$S                   0000000180000000     node:node.exe
 0000:fffce000       .debug$S                   0000000180000000     node:node.exe
 0000:fffce000       .debug$S                   0000000180000000     node:node.exe
 0000:fffce000       .debug$S                   0000000180000000     node:node.exe
 0000:fffce000       .debug$S                   0000000180000000     node:node.exe
 0000:fffce000       .debug$S                   0000000180000000     node:node.exe
 0000:fffce000       .debug$S                   0000000180000000     node:node.exe
 0000:fffce000       .debug$S                   0000000180000000     node:node.exe
 0000:fffce000       .debug$S                   0000000180000000     node:node.exe
 0000:fffce000       .debug$S                   0000000180000000     node:node.exe
 0000:fffce000       .debug$S                   0000000180000000     node:node.exe
 0000:fffce000       .debug$S                   0000000180000000     node:node.exe
 0000:fffce000       .debug$S                   0000000180000000     node:node.exe
 0000:fffce000       .debug$S                   0000000180000000     node:node.exe
 0000:fffce000       .debug$S                   0000000180000000     node:node.exe
 0000:fffce000       .debug$S                   0000000180000000     node:node.exe
 0000:fffce000       .debug$S                   0000000180000000     node:node.exe
 0000:fffce000       .debug$S                   0000000180000000     node:node.exe
 0000:fffce000       .debug$S                   0000000180000000     node:node.exe
 0000:fffce000       .debug$S                   0000000180000000     node:node.exe
 0000:fffce000       .debug$S                   0000000180000000     node:node.exe
 0000:fffce000       .debug$S                   0000000180000000     node:node.exe
 0000:fffce000       .debug$S                   0000000180000000     node:node.exe
 0000:fffce000       .debug$S                   0000000180000000     node:node.exe
 0000:fffce000       .debug$S                   0000000180000000     node:node.exe
 0000:fffce000       .debug$S                   0000000180000000     node:node.exe
 0000:fffce000       .debug$S                   0000000180000000     node:node.exe
 0000:fffce000       .debug$S                   0000000180000000     node:node.exe
 0000:fffce000       .debug$S                   0000000180000000     node:node.exe
 0000:fffce000       .debug$S                   0000000180000000     node:node.exe
 0000:fffce000       .debug$S                   0000000180000000     node:node.exe
 0000:fffce000       .debug$S                   0000000180000000     node:node.exe
 0000:fffce000       .debug$S                   0000000180000000     node:node.exe
 0000:fffce000       .debug$S                   0000000180000000     node:node.exe
 0000:fffce000       .debug$S                   0000000180000000     node:node.exe
 0000:fffce000       .debug$S                   0000000180000000     node:node.exe
 0000:fffce000       .debug$S                   0000000180000000     node:node.exe
 0000:fffce000       .debug$S                   0000000180000000     node:node.exe
 0000:fffce000       .debug$S                   0000000180000000     node:node.exe
 0000:fffce000       .debug$S                   0000000180000000     node:node.exe
 0000:fffce000       .debug$S                   0000000180000000     node:node.exe
 0000:fffce000       .debug$S                   0000000180000000     node:node.exe
 0000:fffce000       .debug$S                   0000000180000000     node:node.exe
 0000:fffce000       .debug$S                   0000000180000000     node:node.exe
 0000:fffce000       .debug$S                   0000000180000000     node:node.exe
 0000:fffce000       .debug$S                   0000000180000000     node:node.exe
 0000:fffce000       .debug$S                   0000000180000000     node:node.exe
 0000:fffce000       .debug$S                   0000000180000000     node:node.exe
 0000:fffce000       .debug$S                   0000000180000000     node:node.exe
 0000:fffce000       .debug$S                   0000000180000000     node:node.exe
 0000:fffce000       .debug$S                   0000000180000000     node:node.exe
 0000:fffce000       .debug$S                   0000000180000000     node:node.exe
 0000:fffce000       .debug$S                   0000000180000000     node:node.exe
 0000:fffce000       .debug$S                   0000000180000000     node:node.exe
 0000:fffce000       .debug$S                   0000000180000000     node:node.exe
 0000:fffce000       .debug$S                   0000000180000000     node:node.exe
 0000:fffce000       .debug$S                   0000000180000000     node:node.exe
 0000:fffce000       .debug$S                   0000000180000000     node:node.exe
 0000:fffce000       .debug$S                   0000000180000000     node:node.exe
 0000:fffce000       .debug$S                   0000000180000000     node:node.exe
 0000:fffce000       .debug$S                   0000000180000000     node:node.exe
 0000:fffce000       .debug$S                   0000000180000000     node:node.exe
 0000:fffce000       .debug$S                   0000000180000000     node:node.exe
 0000:fffce000       .debug$S                   0000000180000000     node:node.exe
 0000:fffce000       .debug$S                   0000000180000000     node:node.exe
 0000:fffce000       .debug$S                   0000000180000000     node:node.exe
 0000:fffce000       .debug$S                   0000000180000000     node:node.exe
 0001:00000000       ??__Epiecewise_construct@std@@YAXXZ 0000000180001000 f   bson.obj
 0001:00000010       ??__Eallocator_arg@std@@YAXXZ 0000000180001010 f   bson.obj
 0001:00000020       ??__E?constructor_template@BSON@@2V?$Persistent@VFunctionTemplate@v8@@V?$NonCopyablePersistentTraits@VFunctionTemplate@v8@@@2@@Nan@@A@@YAXXZ 0000000180001020 f   bson.obj
 0001:00000040       ?FunctionCallbackWrapper@imp@Nan@@YAXAEBV?$FunctionCallbackInfo@VValue@v8@@@v8@@@Z 0000000180001040 f   bson.obj
 0001:00001b60       $LN578                     0000000180002b60     bson.obj
 0001:00001bac       $LN577                     0000000180002bac     bson.obj
 0001:00005580       _register_bson             0000000180006580 f   bson.obj
 0001:00008720       ?load_exe_hook@@YAP6A_JXZIPEAUDelayLoadInfo@@@Z 0000000180009720 f   win_delay_load_hook.obj
 0001:00008ce0       $$000000                   0000000180009ce0     LIBCMT:amdsecgs.obj
 0001:00008f30       $$000000                   0000000180009f30     LIBCMT:memcpy.obj
 0001:00009020       MoveSmall                  000000018000a020     LIBCMT:memcpy.obj
 0001:0000a04c       swprintf                   000000018000b04c f   LIBCMT:wassert.obj
 0001:0000a5cc       _initterm                  000000018000b5cc f   LIBCMT:crt0dat.obj
 0001:0000a680       doexit                     000000018000b680 f   LIBCMT:crt0dat.obj
 0001:0000ac10       __DllMainCRTStartup        000000018000bc10 f   LIBCMT:dllcrt0.obj
 0001:0000ad30       $$000000                   000000018000bd30     LIBCMT:strlen.obj
 0001:0000c5cc       write_char                 000000018000d5cc f   LIBCMT:output.obj
 0001:0000c614       write_multi_char           000000018000d614 f   LIBCMT:output.obj
 0001:0000c668       write_string               000000018000d668 f   LIBCMT:output.obj
 0001:0000c700       $$000000                   000000018000d700     LIBCMT:memset.obj
 0001:0000c8a5       MsetTab                    000000018000d8a5     LIBCMT:memset.obj
 0001:0000e19c       xtow_s                     000000018000f19c f   LIBCMT:xtows.obj
 0001:0000e5a0       flsall                     000000018000f5a0 f   LIBCMT:fflush.obj
 0001:0000f1b0       $$000000                   00000001800101b0     LIBCMT:strcmp.obj
 0001:0000fcbc       ?getSystemCP@@YAHH@Z       0000000180010cbc f   LIBCMT:mbctype.obj
 0001:0000fd3c       ?setSBCS@@YAXPEAUthreadmbcinfostruct@@@Z 0000000180010d3c f   LIBCMT:mbctype.obj
 0001:0000fdcc       ?setSBUpLow@@YAXPEAUthreadmbcinfostruct@@@Z 0000000180010dcc f   LIBCMT:mbctype.obj
 0001:00011138       parse_cmdline              0000000180012138 f   LIBCMT:stdargv.obj
 0001:000116bc       ?CatchIt@@YAXPEAUEHExceptionRecord@@PEA_KPEAU_CONTEXT@@PEAU_xDISPATCHER_CONTEXT@@PEBU_s_FuncInfo@@PEBU_s_HandlerType@@PEBU_s_CatchableType@@PEBU_s_TryBlockMapEntry@@H1EE@Z 00000001800126bc f   LIBCMT:frame.obj
 0001:00011780       ?FindHandler@@YAXPEAUEHExceptionRecord@@PEA_KPEAU_CONTEXT@@PEAU_xDISPATCHER_CONTEXT@@PEBU_s_FuncInfo@@EH1@Z 0000000180012780 f   LIBCMT:frame.obj
 0001:00011c34       ?FindHandlerForForeignException@@YAXPEAUEHExceptionRecord@@PEA_KPEAU_CONTEXT@@PEAU_xDISPATCHER_CONTEXT@@PEBU_s_FuncInfo@@HH1@Z 0000000180012c34 f   LIBCMT:frame.obj
 0001:00011e9c       ?IsInExceptionSpec@@YAEPEAUEHExceptionRecord@@PEBU_s_ESTypeList@@@Z 0000000180012e9c f   LIBCMT:frame.obj
 0001:00012f64       _cftoe2_l                  0000000180013f64 f   LIBCMT:cvt.obj
 0001:00013258       _cftof2_l                  0000000180014258 f   LIBCMT:cvt.obj
 0001:00013df0       $$000000                   0000000180014df0     LIBCMT:chkstk.obj
 0001:00013e50       $$000000                   0000000180014e50     LIBCMT:jmpuwind.obj
 0001:00014be0       write_char                 0000000180015be0 f   LIBCMT:woutput.obj
 0001:00014c18       write_multi_char           0000000180015c18 f   LIBCMT:woutput.obj
 0001:00014c6c       write_string               0000000180015c6c f   LIBCMT:woutput.obj
 0001:00015020       $$000000                   0000000180016020     LIBCMT:fpsr.obj
 0001:0001508c       ?__crtLCMapStringA_stat@@YAHPEAUlocaleinfo_struct@@PEB_WKPEBDHPEADHHH@Z 000000018001608c f   LIBCMT:a_map.obj
 0001:00015410       ?__crtGetStringTypeA_stat@@YAHPEAUlocaleinfo_struct@@KPEBDHPEAGHH@Z 0000000180016410 f   LIBCMT:a_str.obj
 0001:00015c60       $$000000                   0000000180016c60     LIBCMT:memcmp.obj
 0001:00015d38       ?x_ismbbtype_l@@YAHPEAUlocaleinfo_struct@@IHH@Z 0000000180016d38 f   LIBCMT:ismbbyte.obj
 0001:00015de0       $$000000                   0000000180016de0     LIBCMT:handlers.obj
 0001:00018db0       ?dtor$0@?0??New@?$Factory@VFunctionTemplate@v8@@@imp@Nan@@SA?AV?$Local@VFunctionTemplate@v8@@@v8@@P6AXAEBV?$FunctionCallbackInfo@VValue@v8@@@3@@ZV?$Local@VValue@v8@@@5@V?$Local@VSignature@v8@@@5@@Z@4HA 0000000180019db0 f   bson.obj
 0001:00018dc0       ?dtor$0@?0???1ObjectWrap@Nan@@UEAA@XZ@4HA 0000000180019dc0 f   bson.obj
 0001:00018dd0       ?dtor$0@?0???1BSON@@UEAA@XZ@4HA 0000000180019dd0 f   bson.obj
 0001:00018ddc       ?dtor$1@?0???1BSON@@UEAA@XZ@4HA 0000000180019ddc f   bson.obj
 0001:00018dec       ?dtor$2@?0???1BSON@@UEAA@XZ@4HA 0000000180019dec f   bson.obj
 0001:00018dfc       ?dtor$3@?0???1BSON@@UEAA@XZ@4HA 0000000180019dfc f   bson.obj
 0001:00018e0c       ?dtor$4@?0???1BSON@@UEAA@XZ@4HA 0000000180019e0c f   bson.obj
 0001:00018e1c       ?dtor$5@?0???1BSON@@UEAA@XZ@4HA 0000000180019e1c f   bson.obj
 0001:00018e2c       ?dtor$6@?0???1BSON@@UEAA@XZ@4HA 0000000180019e2c f   bson.obj
 0001:00018e3c       ?dtor$7@?0???1BSON@@UEAA@XZ@4HA 0000000180019e3c f   bson.obj
 0001:00018e4c       ?dtor$8@?0???1BSON@@UEAA@XZ@4HA 0000000180019e4c f   bson.obj
 0001:00018e5c       ?dtor$9@?0???1BSON@@UEAA@XZ@4HA 0000000180019e5c f   bson.obj
 0001:00018e6c       ?dtor$10@?0???1BSON@@UEAA@XZ@4HA 0000000180019e6c f   bson.obj
 0001:00018e7c       ?dtor$11@?0???1BSON@@UEAA@XZ@4HA 0000000180019e7c f   bson.obj
 0001:00018e8c       ?dtor$12@?0???1BSON@@UEAA@XZ@4HA 0000000180019e8c f   bson.obj
 0001:00018e98       ?dtor$26@?0???1BSON@@UEAA@XZ@4HA 0000000180019e98 f   bson.obj
 0001:00018eb0       ?dtor$0@?0??Initialize@BSON@@SAXV?$Local@VObject@v8@@@v8@@@Z@4HA 0000000180019eb0 f   bson.obj
 0001:00018ebc       ?dtor$2@?0??Initialize@BSON@@SAXV?$Local@VObject@v8@@@v8@@@Z@4HA 0000000180019ebc f   bson.obj
 0001:00018ec8       ?dtor$5@?0??Initialize@BSON@@SAXV?$Local@VObject@v8@@@v8@@@Z@4HA 0000000180019ec8 f   bson.obj
 0001:00018ed4       ?dtor$8@?0??Initialize@BSON@@SAXV?$Local@VObject@v8@@@v8@@@Z@4HA 0000000180019ed4 f   bson.obj
 0001:00018ee0       ?dtor$11@?0??Initialize@BSON@@SAXV?$Local@VObject@v8@@@v8@@@Z@4HA 0000000180019ee0 f   bson.obj
 0001:00018eec       ?dtor$14@?0??Initialize@BSON@@SAXV?$Local@VObject@v8@@@v8@@@Z@4HA 0000000180019eec f   bson.obj
 0001:00018f00       ?dtor$0@?0??New@BSON@@CAXAEBV?$FunctionCallbackInfo@VValue@v8@@@Nan@@@Z@4HA 0000000180019f00 f   bson.obj
 0001:00018f0c       ?dtor$3@?0??New@BSON@@CAXAEBV?$FunctionCallbackInfo@VValue@v8@@@Nan@@@Z@4HA 0000000180019f0c f   bson.obj
 0001:00018f18       ?dtor$7@?0??New@BSON@@CAXAEBV?$FunctionCallbackInfo@VValue@v8@@@Nan@@@Z@4HA 0000000180019f18 f   bson.obj
 0001:00018f24       ?dtor$11@?0??New@BSON@@CAXAEBV?$FunctionCallbackInfo@VValue@v8@@@Nan@@@Z@4HA 0000000180019f24 f   bson.obj
 0001:00018f30       ?dtor$0@?0??BSONDeserialize@BSON@@SAXAEBV?$FunctionCallbackInfo@VValue@v8@@@Nan@@@Z@4HA 0000000180019f30 f   bson.obj
 0001:00018f3c       ?dtor$2@?0??BSONDeserialize@BSON@@SAXAEBV?$FunctionCallbackInfo@VValue@v8@@@Nan@@@Z@4HA 0000000180019f3c f   bson.obj
 0001:00018f48       ?dtor$6@?0??BSONDeserialize@BSON@@SAXAEBV?$FunctionCallbackInfo@VValue@v8@@@Nan@@@Z@4HA 0000000180019f48 f   bson.obj
 0001:00018f54       ?catch$0@?0??BSONDeserialize@BSON@@SAXAEBV?$FunctionCallbackInfo@VValue@v8@@@Nan@@@Z@4HA 0000000180019f54 f   bson.obj
 0001:00018f63       __catch$?BSONDeserialize@BSON@@SAXAEBV?$FunctionCallbackInfo@VValue@v8@@@Nan@@@Z$0 0000000180019f63 f   bson.obj
 0001:00019018       ?dtor$10@?0??BSONDeserialize@BSON@@SAXAEBV?$FunctionCallbackInfo@VValue@v8@@@Nan@@@Z@4HA 000000018001a018 f   bson.obj
 0001:00019024       ?dtor$14@?0??BSONDeserialize@BSON@@SAXAEBV?$FunctionCallbackInfo@VValue@v8@@@Nan@@@Z@4HA 000000018001a024 f   bson.obj
 0001:00019030       ?catch$1@?0??BSONDeserialize@BSON@@SAXAEBV?$FunctionCallbackInfo@VValue@v8@@@Nan@@@Z@4HA 000000018001a030 f   bson.obj
 0001:0001903f       __catch$?BSONDeserialize@BSON@@SAXAEBV?$FunctionCallbackInfo@VValue@v8@@@Nan@@@Z$2 000000018001a03f f   bson.obj
 0001:00019103       ?dtor$18@?0??BSONDeserialize@BSON@@SAXAEBV?$FunctionCallbackInfo@VValue@v8@@@Nan@@@Z@4HA 000000018001a103 f   bson.obj
 0001:00019110       ?dtor$0@?0??BSONSerialize@BSON@@SAXAEBV?$FunctionCallbackInfo@VValue@v8@@@Nan@@@Z@4HA 000000018001a110 f   bson.obj
 0001:0001911c       ?dtor$2@?0??BSONSerialize@BSON@@SAXAEBV?$FunctionCallbackInfo@VValue@v8@@@Nan@@@Z@4HA 000000018001a11c f   bson.obj
 0001:00019128       ?dtor$6@?0??BSONSerialize@BSON@@SAXAEBV?$FunctionCallbackInfo@VValue@v8@@@Nan@@@Z@4HA 000000018001a128 f   bson.obj
 0001:00019134       ?dtor$10@?0??BSONSerialize@BSON@@SAXAEBV?$FunctionCallbackInfo@VValue@v8@@@Nan@@@Z@4HA 000000018001a134 f   bson.obj
 0001:00019140       ?dtor$14@?0??BSONSerialize@BSON@@SAXAEBV?$FunctionCallbackInfo@VValue@v8@@@Nan@@@Z@4HA 000000018001a140 f   bson.obj
 0001:0001914c       ?dtor$18@?0??BSONSerialize@BSON@@SAXAEBV?$FunctionCallbackInfo@VValue@v8@@@Nan@@@Z@4HA 000000018001a14c f   bson.obj
 0001:00019158       ?dtor$22@?0??BSONSerialize@BSON@@SAXAEBV?$FunctionCallbackInfo@VValue@v8@@@Nan@@@Z@4HA 000000018001a158 f   bson.obj
 0001:00019164       ?catch$0@?0??BSONSerialize@BSON@@SAXAEBV?$FunctionCallbackInfo@VValue@v8@@@Nan@@@Z@4HA 000000018001a164 f   bson.obj
 0001:00019173       __catch$?BSONSerialize@BSON@@SAXAEBV?$FunctionCallbackInfo@VValue@v8@@@Nan@@@Z$0 000000018001a173 f   bson.obj
 0001:00019234       ?dtor$26@?0??BSONSerialize@BSON@@SAXAEBV?$FunctionCallbackInfo@VValue@v8@@@Nan@@@Z@4HA 000000018001a234 f   bson.obj
 0001:00019240       ?catch$1@?0??BSONSerialize@BSON@@SAXAEBV?$FunctionCallbackInfo@VValue@v8@@@Nan@@@Z@4HA 000000018001a240 f   bson.obj
 0001:0001924e       __catch$?BSONSerialize@BSON@@SAXAEBV?$FunctionCallbackInfo@VValue@v8@@@Nan@@@Z$1 000000018001a24e f   bson.obj
 0001:00019303       ?dtor$29@?0??BSONSerialize@BSON@@SAXAEBV?$FunctionCallbackInfo@VValue@v8@@@Nan@@@Z@4HA 000000018001a303 f   bson.obj
 0001:00019310       ?dtor$0@?0??CalculateObjectSize@BSON@@SAXAEBV?$FunctionCallbackInfo@VValue@v8@@@Nan@@@Z@4HA 000000018001a310 f   bson.obj
 0001:0001931c       ?dtor$2@?0??CalculateObjectSize@BSON@@SAXAEBV?$FunctionCallbackInfo@VValue@v8@@@Nan@@@Z@4HA 000000018001a31c f   bson.obj
 0001:00019328       ?dtor$6@?0??CalculateObjectSize@BSON@@SAXAEBV?$FunctionCallbackInfo@VValue@v8@@@Nan@@@Z@4HA 000000018001a328 f   bson.obj
 0001:00019334       ?dtor$10@?0??CalculateObjectSize@BSON@@SAXAEBV?$FunctionCallbackInfo@VValue@v8@@@Nan@@@Z@4HA 000000018001a334 f   bson.obj
 0001:00019340       ?dtor$0@?0??SerializeWithBufferAndIndex@BSON@@SAXAEBV?$FunctionCallbackInfo@VValue@v8@@@Nan@@@Z@4HA 000000018001a340 f   bson.obj
 0001:0001934c       ?dtor$2@?0??SerializeWithBufferAndIndex@BSON@@SAXAEBV?$FunctionCallbackInfo@VValue@v8@@@Nan@@@Z@4HA 000000018001a34c f   bson.obj
 0001:00019358       ?dtor$6@?0??SerializeWithBufferAndIndex@BSON@@SAXAEBV?$FunctionCallbackInfo@VValue@v8@@@Nan@@@Z@4HA 000000018001a358 f   bson.obj
 0001:00019364       ?dtor$10@?0??SerializeWithBufferAndIndex@BSON@@SAXAEBV?$FunctionCallbackInfo@VValue@v8@@@Nan@@@Z@4HA 000000018001a364 f   bson.obj
 0001:00019370       ?dtor$14@?0??SerializeWithBufferAndIndex@BSON@@SAXAEBV?$FunctionCallbackInfo@VValue@v8@@@Nan@@@Z@4HA 000000018001a370 f   bson.obj
 0001:0001937c       ?catch$0@?0??SerializeWithBufferAndIndex@BSON@@SAXAEBV?$FunctionCallbackInfo@VValue@v8@@@Nan@@@Z@4HA 000000018001a37c f   bson.obj
 0001:0001938b       __catch$?SerializeWithBufferAndIndex@BSON@@SAXAEBV?$FunctionCallbackInfo@VValue@v8@@@Nan@@@Z$0 000000018001a38b f   bson.obj
 0001:00019443       ?dtor$18@?0??SerializeWithBufferAndIndex@BSON@@SAXAEBV?$FunctionCallbackInfo@VValue@v8@@@Nan@@@Z@4HA 000000018001a443 f   bson.obj
 0001:0001944f       ?catch$1@?0??SerializeWithBufferAndIndex@BSON@@SAXAEBV?$FunctionCallbackInfo@VValue@v8@@@Nan@@@Z@4HA 000000018001a44f f   bson.obj
 0001:0001945d       __catch$?SerializeWithBufferAndIndex@BSON@@SAXAEBV?$FunctionCallbackInfo@VValue@v8@@@Nan@@@Z$1 000000018001a45d f   bson.obj
 0001:00019509       ?dtor$21@?0??SerializeWithBufferAndIndex@BSON@@SAXAEBV?$FunctionCallbackInfo@VValue@v8@@@Nan@@@Z@4HA 000000018001a509 f   bson.obj
 0001:00019520       ?dtor$0@?0??BSONDeserializeStream@BSON@@SAXAEBV?$FunctionCallbackInfo@VValue@v8@@@Nan@@@Z@4HA 000000018001a520 f   bson.obj
 0001:0001952c       ?dtor$2@?0??BSONDeserializeStream@BSON@@SAXAEBV?$FunctionCallbackInfo@VValue@v8@@@Nan@@@Z@4HA 000000018001a52c f   bson.obj
 0001:00019538       ?dtor$6@?0??BSONDeserializeStream@BSON@@SAXAEBV?$FunctionCallbackInfo@VValue@v8@@@Nan@@@Z@4HA 000000018001a538 f   bson.obj
 0001:00019544       ?dtor$10@?0??BSONDeserializeStream@BSON@@SAXAEBV?$FunctionCallbackInfo@VValue@v8@@@Nan@@@Z@4HA 000000018001a544 f   bson.obj
 0001:00019550       ?dtor$14@?0??BSONDeserializeStream@BSON@@SAXAEBV?$FunctionCallbackInfo@VValue@v8@@@Nan@@@Z@4HA 000000018001a550 f   bson.obj
 0001:0001955c       ?dtor$18@?0??BSONDeserializeStream@BSON@@SAXAEBV?$FunctionCallbackInfo@VValue@v8@@@Nan@@@Z@4HA 000000018001a55c f   bson.obj
 0001:00019568       ?dtor$22@?0??BSONDeserializeStream@BSON@@SAXAEBV?$FunctionCallbackInfo@VValue@v8@@@Nan@@@Z@4HA 000000018001a568 f   bson.obj
 0001:00019574       ?dtor$26@?0??BSONDeserializeStream@BSON@@SAXAEBV?$FunctionCallbackInfo@VValue@v8@@@Nan@@@Z@4HA 000000018001a574 f   bson.obj
 0001:00019580       ?catch$0@?0??BSONDeserializeStream@BSON@@SAXAEBV?$FunctionCallbackInfo@VValue@v8@@@Nan@@@Z@4HA 000000018001a580 f   bson.obj
 0001:0001958f       __catch$?BSONDeserializeStream@BSON@@SAXAEBV?$FunctionCallbackInfo@VValue@v8@@@Nan@@@Z$0 000000018001a58f f   bson.obj
 0001:00019647       ?dtor$30@?0??BSONDeserializeStream@BSON@@SAXAEBV?$FunctionCallbackInfo@VValue@v8@@@Nan@@@Z@4HA 000000018001a647 f   bson.obj
 0001:00019653       perror$fin$0               000000018001a653 f   LIBCMT:perror.obj
 0001:0001966c       _onexit$fin$0              000000018001a66c f   LIBCMT:onexit.obj
 0001:00019680       printf$fin$0               000000018001a680 f   LIBCMT:printf.obj
 0001:000196a7       doexit$fin$0               000000018001a6a7 f   LIBCMT:crt0dat.obj
 0001:000196cb       _CRT_INIT$fin$0            000000018001a6cb f   LIBCMT:dllcrt0.obj
 0001:000196f1       __DllMainCRTStartup$filt$0 000000018001a6f1 f   LIBCMT:dllcrt0.obj
 0001:0001973a       _CallSETranslator$filt$0   000000018001a73a f   LIBCMT:trnsctrl.obj
 0001:00019780       __lock_fhandle$fin$0       000000018001a780 f   LIBCMT:osfinfo.obj
 0001:00019799       _write$fin$0               000000018001a799 f   LIBCMT:write.obj
 0001:00019799       _lseeki64$fin$0            000000018001a799 f   LIBCMT:write.obj
 0001:000197b0       _initptd$fin$1             000000018001a7b0 f   LIBCMT:tidtable.obj
 0001:000197b0       _freefls$fin$1             000000018001a7b0 f   LIBCMT:tidtable.obj
 0001:000197c9       _freefls$fin$0             000000018001a7c9 f   LIBCMT:tidtable.obj
 0001:000197c9       _initptd$fin$0             000000018001a7c9 f   LIBCMT:tidtable.obj
 0001:000197e2       fclose$fin$0               000000018001a7e2 f   LIBCMT:fflush.obj
 0001:000197e2       fflush$fin$0               000000018001a7e2 f   LIBCMT:fflush.obj
 0001:000197fa       flsall$fin$0               000000018001a7fa f   LIBCMT:fflush.obj
 0001:00019822       flsall$fin$1               000000018001a822 f   LIBCMT:fflush.obj
 0001:0001983b       setvbuf$fin$0              000000018001a83b f   LIBCMT:setvbuf.obj
 0001:00019853       fwprintf$fin$0             000000018001a853 f   LIBCMT:fwprintf.obj
 0001:0001986d       raise$fin$0                000000018001a86d f   LIBCMT:winsig.obj
 0001:0001988b       ?fin$0@?0??_Type_info_dtor@type_info@@CAXPEAV1@@Z@4HA 000000018001a88b f   LIBCMT:typname.obj
 0001:000198a4       _mtinitlocknum$fin$0       000000018001a8a4 f   LIBCMT:mlock.obj
 0001:000198d0       _IsNonwritableInCurrentImage$filt$0 000000018001a8d0 f   LIBCMT:pesect.obj
 0001:000198f0       _setmbcp$fin$0             000000018001a8f0 f   LIBCMT:mbctype.obj
 0001:000198f0       __updatetmbcinfo$fin$0     000000018001a8f0 f   LIBCMT:mbctype.obj
 0001:00019909       __updatetlocinfo$fin$0     000000018001a909 f   LIBCMT:wsetloca.obj
 0001:00019909       _locterm$fin$0             000000018001a909 f   LIBCMT:wsetloca.obj
 0001:00019922       _ioinit$fin$0              000000018001a922 f   LIBCMT:ioinit.obj
 0001:0001993d       __CxxCallCatchBlock$filt$0 000000018001a93d f   LIBCMT:frame.obj
 0001:00019a31       __CxxCallCatchBlock$fin$1  000000018001aa31 f   LIBCMT:frame.obj
 0001:00019aaf       __DestructExceptionObject$filt$0 000000018001aaaf f   LIBCMT:frame.obj
 0001:00019ac7       __FrameUnwindToState$filt$0 000000018001aac7 f   LIBCMT:frame.obj
 0001:00019add       __FrameUnwindToState$fin$1 000000018001aadd f   LIBCMT:frame.obj
 0001:00019b06       _fcloseall$fin$0           000000018001ab06 f   LIBCMT:closeall.obj
 0001:00019b1f       _close$fin$0               000000018001ab1f f   LIBCMT:commit.obj
 0001:00019b1f       _commit$fin$0              000000018001ab1f f   LIBCMT:commit.obj
 0001:00019b40       ??__F?constructor_template@BSON@@2V?$Persistent@VFunctionTemplate@v8@@V?$NonCopyablePersistentTraits@VFunctionTemplate@v8@@@2@@Nan@@A@@YAXXZ 000000018001ab40 f   bson.obj
 0002:00000230       piecewise_construct$initializer$ 000000018001b230     bson.obj
 0002:00000238       allocator_arg$initializer$ 000000018001b238     bson.obj
 0002:00000240       ?constructor_template$initializer$@BSON@@2P6AXXZEA 000000018001b240     bson.obj
 0002:00000260       pinit                      000000018001b260     LIBCMT:onexit.obj
 0002:00000268       pinit                      000000018001b268     LIBCMT:cpu_disp.obj
 0002:00000270       pinit                      000000018001b270     LIBCMT:_file.obj
 0002:00000278       pinit                      000000018001b278     LIBCMT:mbctype.obj
 0002:00000290       pterm                      000000018001b290     LIBCMT:wsetloca.obj
 0002:00000298       pterm                      000000018001b298     LIBCMT:initcon.obj
 0002:000002a0       pterm                      000000018001b2a0     LIBCMT:_file.obj
 0002:00000310       _Win_errtab                000000018001b310     libcpmt:syserror.obj
 0002:000007c0       _Sys_errtab                000000018001b7c0     libcpmt:syserror.obj
 0002:00001900       ?ExceptionTemplate@?1??_CxxThrowException@@9@4UEHExceptionRecord@@B 000000018001c900     LIBCMT:throw.obj
 0002:00001940       ?ExceptionTemplate@?1??_UnwindNestedFrames@@9@4U_EXCEPTION_RECORD@@B 000000018001c940     LIBCMT:trnsctrl.obj
 0002:00001a10       GS_ExceptionPointers       000000018001ca10     LIBCMT:gs_report.obj
 0002:00001fa0       rterrs                     000000018001cfa0     LIBCMT:crt0msg.obj
 0002:00002e28       _mb_locale_names           000000018001de28     LIBCMT:mbctype.obj
 0002:00003240       _first_127char             000000018001e240     LIBCMT:wsetloca.obj
 0002:00006730       __real@433fffffffffffff    0000000180021730     LIBCMT:fpsr.obj
 0002:00006738       __real@c33fffffffffffff    0000000180021738     LIBCMT:fpsr.obj
 0002:00006810       tokenTable                 0000000180021810     LIBCMT:undname.obj
 0002:00006880       nameTable                  0000000180021880     LIBCMT:undname.obj
 0002:00006b00       rttiTable                  0000000180021b00     LIBCMT:undname.obj
 0002:00008a68       LONG_HIGH_PROPERTY_NAME    0000000180023a68     bson.obj
 0002:00008a70       BINARY_CLASS_NAME          0000000180023a70     bson.obj
 0002:00008a78       MAX_KEY_CLASS_NAME         0000000180023a78     bson.obj
 0002:00008a80       SYMBOL_VALUE_PROPERTY_NAME 0000000180023a80     bson.obj
 0002:00008a88       TO_BSON_PROPERTY_NAME      0000000180023a88     bson.obj
 0002:00008a90       BSONTYPE_PROPERTY_NAME     0000000180023a90     bson.obj
 0002:00008a98       DBREF_OID_PROPERTY_NAME    0000000180023a98     bson.obj
 0002:00008aa0       CODE_CLASS_NAME            0000000180023aa0     bson.obj
 0002:00008aa8       LONG_CLASS_NAME            0000000180023aa8     bson.obj
 0002:00008ab0       CODE_CODE_PROPERTY_NAME    0000000180023ab0     bson.obj
 0002:00008ab8       DOUBLE_CLASS_NAME          0000000180023ab8     bson.obj
 0002:00008ac0       OBJECT_ID_CLASS_NAME       0000000180023ac0     bson.obj
 0002:00008ac8       SYMBOL_CLASS_NAME          0000000180023ac8     bson.obj
 0002:00008ad0       DOUBLE_VALUE_PROPERTY_NAME 0000000180023ad0     bson.obj
 0002:00008ad8       DBREF_REF_PROPERTY_NAME    0000000180023ad8     bson.obj
 0002:00008ae0       BINARY_POSITION_PROPERTY_NAME 0000000180023ae0     bson.obj
 0002:00008ae8       LONG_LOW_PROPERTY_NAME     0000000180023ae8     bson.obj
 0002:00008af0       BINARY_BUFFER_PROPERTY_NAME 0000000180023af0     bson.obj
 0002:00008af8       MIN_KEY_CLASS_NAME         0000000180023af8     bson.obj
 0002:00008b00       TIMESTAMP_CLASS_NAME       0000000180023b00     bson.obj
 0002:00008b08       DBREF_CLASS_NAME           0000000180023b08     bson.obj
 0002:00008b10       DBREF_DB_REF_PROPERTY_NAME 0000000180023b10     bson.obj
 0002:00008b18       CODE_SCOPE_PROPERTY_NAME   0000000180023b18     bson.obj
 0002:00008b20       DBREF_ID_REF_PROPERTY_NAME 0000000180023b20     bson.obj
 0002:00008b28       DBREF_NAMESPACE_PROPERTY_NAME 0000000180023b28     bson.obj
 0002:00008b30       OBJECT_ID_ID_PROPERTY_NAME 0000000180023b30     bson.obj
 0002:00008b38       DBREF_DB_PROPERTY_NAME     0000000180023b38     bson.obj
 0002:00008b40       BINARY_SUBTYPE_PROPERTY_NAME 0000000180023b40     bson.obj
 0002:00008b98       $cppxdata$?BSONDeserializeStream@BSON@@SAXAEBV?$FunctionCallbackInfo@VValue@v8@@@Nan@@@Z 0000000180023b98     bson.obj
 0002:00008bc0       $cppxdata$?SerializeWithBufferAndIndex@BSON@@SAXAEBV?$FunctionCallbackInfo@VValue@v8@@@Nan@@@Z 0000000180023bc0     bson.obj
 0002:00008be8       $cppxdata$?CalculateObjectSize@BSON@@SAXAEBV?$FunctionCallbackInfo@VValue@v8@@@Nan@@@Z 0000000180023be8     bson.obj
 0002:00008c10       $cppxdata$?BSONSerialize@BSON@@SAXAEBV?$FunctionCallbackInfo@VValue@v8@@@Nan@@@Z 0000000180023c10     bson.obj
 0002:00008c38       $cppxdata$?BSONDeserialize@BSON@@SAXAEBV?$FunctionCallbackInfo@VValue@v8@@@Nan@@@Z 0000000180023c38     bson.obj
 0002:00008c60       $cppxdata$?New@BSON@@CAXAEBV?$FunctionCallbackInfo@VValue@v8@@@Nan@@@Z 0000000180023c60     bson.obj
 0002:00008c88       $cppxdata$?Initialize@BSON@@SAXV?$Local@VObject@v8@@@v8@@@Z 0000000180023c88     bson.obj
 0002:00008cb0       $cppxdata$??1BSON@@UEAA@XZ 0000000180023cb0     bson.obj
 0002:00008cd8       $cppxdata$??1ObjectWrap@Nan@@UEAA@XZ 0000000180023cd8     bson.obj
 0002:00008d00       $cppxdata$?New@?$Factory@VFunctionTemplate@v8@@@imp@Nan@@SA?AV?$Local@VFunctionTemplate@v8@@@v8@@P6AXAEBV?$FunctionCallbackInfo@VValue@v8@@@3@@ZV?$Local@VValue@v8@@@5@V?$Local@VSignature@v8@@@5@@Z 0000000180023d00     bson.obj
 0002:00009070       $unwind$?FunctionCallbackWrapper@imp@Nan@@YAXAEBV?$FunctionCallbackInfo@VValue@v8@@@v8@@@Z 0000000180024070     bson.obj
 0002:00009070       $unwind$_setargv           0000000180024070     LIBCMT:stdargv.obj
 0002:00009080       $unwind$?New@?$Factory@VFunctionTemplate@v8@@@imp@Nan@@SA?AV?$Local@VFunctionTemplate@v8@@@v8@@P6AXAEBV?$FunctionCallbackInfo@VValue@v8@@@3@@ZV?$Local@VValue@v8@@@5@V?$Local@VSignature@v8@@@5@@Z 0000000180024080     bson.obj
 0002:00009098       $stateUnwindMap$?New@?$Factory@VFunctionTemplate@v8@@@imp@Nan@@SA?AV?$Local@VFunctionTemplate@v8@@@v8@@P6AXAEBV?$FunctionCallbackInfo@VValue@v8@@@3@@ZV?$Local@VValue@v8@@@5@V?$Local@VSignature@v8@@@5@@Z 0000000180024098     bson.obj
 0002:000090a0       $ip2state$?New@?$Factory@VFunctionTemplate@v8@@@imp@Nan@@SA?AV?$Local@VFunctionTemplate@v8@@@v8@@P6AXAEBV?$FunctionCallbackInfo@VValue@v8@@@3@@ZV?$Local@VValue@v8@@@5@V?$Local@VSignature@v8@@@5@@Z 00000001800240a0     bson.obj
 0002:000090b8       $unwind$??1ObjectWrap@Nan@@UEAA@XZ 00000001800240b8     bson.obj
 0002:000090c8       $stateUnwindMap$??1ObjectWrap@Nan@@UEAA@XZ 00000001800240c8     bson.obj
 0002:000090d0       $ip2state$??1ObjectWrap@Nan@@UEAA@XZ 00000001800240d0     bson.obj
 0002:000090e8       $unwind$?Wrap@ObjectWrap@Nan@@IEAAXV?$Local@VObject@v8@@@v8@@@Z 00000001800240e8     bson.obj
 0002:000090f4       $unwind$_lock_file2        00000001800240f4     LIBCMT:_file.obj
 0002:000090f4       $unwind$_lock_file         00000001800240f4     LIBCMT:_file.obj
 0002:000090f4       $unwind$?load_exe_hook@@YAP6A_JXZIPEAUDelayLoadInfo@@@Z 00000001800240f4     win_delay_load_hook.obj
 0002:000090f4       $unwind$_freebuf           00000001800240f4     LIBCMT:_freebuf.obj
 0002:000090f4       $unwind$_getbuf            00000001800240f4     LIBCMT:_getbuf.obj
 0002:000090f4       $unwind$__crtLoadWinApiPointers 00000001800240f4     LIBCMT:winapisupp.obj
 0002:000090f4       $unwind$?Ref@ObjectWrap@Nan@@MEAAXXZ 00000001800240f4     bson.obj
 0002:000090f4       $unwind$?__GetUnwindTryBlock@@YAHPEA_KPEAU_xDISPATCHER_CONTEXT@@PEBU_s_FuncInfo@@@Z 00000001800240f4     LIBCMT:ehstate.obj
 0002:000090f4       $unwind$_init_pointers     00000001800240f4     LIBCMT:crt0dat.obj
 0002:000090f4       $unwind$??0exception@std@@QEAA@AEBQEBD@Z 00000001800240f4     LIBCMT:stdexcpt.obj
 0002:000090f4       $unwind$_cinit             00000001800240f4     LIBCMT:crt0dat.obj
 0002:000090f4       $unwind$__crtCorExitProcess 00000001800240f4     LIBCMT:crt0dat.obj
 0002:000090f4       $unwind$??0exception@std@@QEAA@AEBV01@@Z 00000001800240f4     LIBCMT:stdexcpt.obj
 0002:000090f4       $unwind$_fflush_nolock     00000001800240f4     LIBCMT:fflush.obj
 0002:000090f4       $unwind$strcpy_s           00000001800240f4     LIBCMT:strcpy_s.obj
 0002:000090f4       $unwind$wcscat_s           00000001800240f4     LIBCMT:wcscat_s.obj
 0002:000090f4       $unwind$wcscpy_s           00000001800240f4     LIBCMT:wcscpy_s.obj
 0002:000090f4       $unwind$__GSHandlerCheckCommon 00000001800240f4     LIBCMT:gshandler.obj
 0002:000090f4       $unwind$wcsncat_s          00000001800240f4     LIBCMT:wcsncat_s.obj
 0002:000090f4       $unwind$wcsncpy_s          00000001800240f4     LIBCMT:wcsncpy_s.obj
 0002:000090f4       $unwind$_callnewh          00000001800240f4     LIBCMT:handler.obj
 0002:000090f4       $unwind$_SetThrowImageBase 00000001800240f4     LIBCMT:trnsctrl.obj
 0002:000090f4       $unwind$_SetImageBase      00000001800240f4     LIBCMT:trnsctrl.obj
 0002:000090f4       $unwind$__crtUnhandledException 00000001800240f4     LIBCMT:winapisupp.obj
 0002:000090f4       $unwind$__crtExitProcess   00000001800240f4     LIBCMT:crt0dat.obj
 0002:000090f4       $unwind$??0bad_exception@std@@QEAA@AEBV01@@Z 00000001800240f4     LIBCMT:frame.obj
 0002:000090f4       $unwind$_amsg_exit         00000001800240f4     LIBCMT:crt0dat.obj
 0002:000090f4       $unwind$__crtIsPackagedApp 00000001800240f4     LIBCMT:winapisupp.obj
 0002:000090f4       $unwind$_IsExceptionObjectToBeDestroyed 00000001800240f4     LIBCMT:trnsctrl.obj
 0002:000090f4       $unwind$??0bad_alloc@std@@QEAA@AEBV01@@Z 00000001800240f4     libcpmt:xthrow.obj
 0002:000090f4       $unwind$_CreateFrameInfo   00000001800240f4     LIBCMT:trnsctrl.obj
 0002:000090f4       $unwind$__raise_securityfailure 00000001800240f4     LIBCMT:gs_report.obj
 0002:000090f4       $unwind$?WeakCallback@ObjectWrap@Nan@@CAXAEBV?$WeakCallbackInfo@VObjectWrap@Nan@@@v8@@@Z 00000001800240f4     bson.obj
 0002:000090f4       $unwind$_mtinit            00000001800240f4     LIBCMT:tidtable.obj
 0002:000090f4       $unwind$?_Tidy@exception@std@@AEAAXXZ 00000001800240f4     LIBCMT:stdexcpt.obj
 0002:000090f4       $unwind$__onexitinit       00000001800240f4     LIBCMT:onexit.obj
 0002:000090f4       $unwind$write_char         00000001800240f4     LIBCMT:output.obj
 0002:000090f4       $unwind$write_char         00000001800240f4     LIBCMT:woutput.obj
 0002:000090f4       $unwind$_freeptd           00000001800240f4     LIBCMT:tidtable.obj
 0002:000090f4       $unwind$__crtTerminateProcess 00000001800240f4     LIBCMT:winapisupp.obj
 0002:000090f4       $unwind$?Unref@ObjectWrap@Nan@@MEAAXXZ 00000001800240f4     bson.obj
 0002:000090f4       $unwind$_getptd            00000001800240f4     LIBCMT:tidtable.obj
 0002:000090f4       $unwind$??0_LocaleUpdate@@QEAA@PEAUlocaleinfo_struct@@@Z 00000001800240f4     LIBCMT:stricmp.obj
 0002:000090fc       $unwind$_fptostr           00000001800240fc     LIBCMT:_fptostr.obj
 0002:000090fc       $unwind$_RTC_Terminate     00000001800240fc     LIBCMT:initsect.obj
 0002:000090fc       $unwind$_FindAndUnlinkFrame 00000001800240fc     LIBCMT:trnsctrl.obj
 0002:000090fc       $unwind$_RTC_Initialize    00000001800240fc     LIBCMT:initsect.obj
 0002:000090fc       $unwind$_lock              00000001800240fc     LIBCMT:mlock.obj
 0002:000090fc       $unwind$??_Gbad_alloc@std@@UEAAPEAXI@Z 00000001800240fc     libcpmt:xthrow.obj
 0002:000090fc       $unwind$??_Gexception@std@@UEAAPEAXI@Z 00000001800240fc     LIBCMT:stdexcpt.obj
 0002:000090fc       $unwind$??_Gbad_exception@std@@UEAAPEAXI@Z 00000001800240fc     LIBCMT:frame.obj
 0002:000090fc       $unwind$_fclose_nolock     00000001800240fc     LIBCMT:fclose.obj
 0002:000090fc       $unwind$__freeCrtMemory    00000001800240fc     LIBCMT:crt0dat.obj
 0002:000090fc       $unwind$?__SetUnwindTryBlock@@YAXPEA_KPEAU_xDISPATCHER_CONTEXT@@PEBU_s_FuncInfo@@H@Z 00000001800240fc     LIBCMT:ehstate.obj
 0002:000090fc       $unwind$_initterm_e        00000001800240fc     LIBCMT:crt0dat.obj
 0002:000090fc       $unwind$??_GBSON@@UEAAPEAXI@Z 00000001800240fc     bson.obj
 0002:000090fc       $unwind$__initstdio        00000001800240fc     LIBCMT:_file.obj
 0002:000090fc       $unwind$_close_nolock      00000001800240fc     LIBCMT:close.obj
 0002:000090fc       $unwind$??_GObjectWrap@Nan@@UEAAPEAXI@Z 00000001800240fc     bson.obj
 0002:000090fc       $unwind$_updatetlocinfoEx_nolock 00000001800240fc     LIBCMT:localref.obj
 0002:000090fc       $unwind$_initp_misc_cfltcvt_tab 00000001800240fc     LIBCMT:cmiscdat.obj
 0002:000090fc       $unwind$??_Gtype_info@@UEAAPEAXI@Z 00000001800240fc     LIBCMT:typinfo.obj
 0002:000090fc       $unwind$_calloc_impl       00000001800240fc     LIBCMT:calloc_impl.obj
 0002:000090fc       $unwind$??4exception@std@@QEAAAEAV01@AEBV01@@Z 00000001800240fc     LIBCMT:stdexcpt.obj
 0002:000090fc       $unwind$_dosmaperr         00000001800240fc     LIBCMT:dosmap.obj
 0002:000090fc       $unwind$_getptd_noexit     00000001800240fc     LIBCMT:tidtable.obj
 0002:00009108       $unwind$_initp_eh_hooks    0000000180024108     LIBCMT:hooks.obj
 0002:00009108       $unwind$?WriteByte@DataStream@@QEAAXH@Z 0000000180024108     bson.obj
 0002:00009108       $unwind$?WriteInt32@DataStream@@QEAAXH@Z 0000000180024108     bson.obj
 0002:00009108       $unwind$atexit             0000000180024108     LIBCMT:onexit.obj
 0002:00009108       $unwind$_mtterm            0000000180024108     LIBCMT:tidtable.obj
 0002:00009108       $unwind$_FF_MSGBANNER      0000000180024108     LIBCMT:crt0msg.obj
 0002:00009108       $unwind$?BeginWriteSize@DataStream@@QEAAPEAXXZ 0000000180024108     bson.obj
 0002:00009108       $unwind$_invoke_watson     0000000180024108     LIBCMT:invarg.obj
 0002:00009108       $unwind$__FrameUnwindFilter 0000000180024108     LIBCMT:frame.obj
 0002:00009108       $unwind$__doserrno         0000000180024108     LIBCMT:dosmap.obj
 0002:00009108       $unwind$__initmbctable     0000000180024108     LIBCMT:mbctype.obj
 0002:00009108       $unwind$_isatty            0000000180024108     LIBCMT:isatty.obj
 0002:00009108       $unwind$_get_osfhandle     0000000180024108     LIBCMT:osfinfo.obj
 0002:00009108       $unwind$_GetImageBase      0000000180024108     LIBCMT:trnsctrl.obj
 0002:00009108       $unwind$?__GetCurrentState@@YAHPEA_KPEAU_xDISPATCHER_CONTEXT@@PEBU_s_FuncInfo@@@Z 0000000180024108     LIBCMT:ehstate.obj
 0002:00009108       $unwind$_set_error_mode    0000000180024108     LIBCMT:errmode.obj
 0002:00009108       $unwind$__endstdio         0000000180024108     LIBCMT:_file.obj
 0002:00009108       $unwind$_fileno            0000000180024108     LIBCMT:fileno.obj
 0002:00009108       $unwind$abort              0000000180024108     LIBCMT:abort.obj
 0002:00009108       $unwind$__termconout       0000000180024108     LIBCMT:initcon.obj
 0002:00009108       $unwind$_msize             0000000180024108     LIBCMT:msize.obj
 0002:00009108       $unwind$_heap_init         0000000180024108     LIBCMT:heapinit.obj
 0002:00009108       $unwind$??8type_info@@QEBA_NAEBV0@@Z 0000000180024108     LIBCMT:typinfo.obj
 0002:00009108       $unwind$__crtInitializeCriticalSectionEx 0000000180024108     LIBCMT:winapisupp.obj
 0002:00009108       $unwind$__GSHandlerCheck   0000000180024108     LIBCMT:gshandler.obj
 0002:00009108       $unwind$__crtDownlevelLocaleNameToLCID 0000000180024108     LIBCMT:winapinls.obj
 0002:00009108       $unwind$_stricmp           0000000180024108     LIBCMT:stricmp.obj
 0002:00009108       $unwind$_GetThrowImageBase 0000000180024108     LIBCMT:trnsctrl.obj
 0002:00009108       $unwind$_errno             0000000180024108     LIBCMT:dosmap.obj
 0002:00009110       $unwind$?WriteLengthPrefixedString@DataStream@@QEAAXAEBV?$Local@VString@v8@@@v8@@@Z 0000000180024110     bson.obj
 0002:0000911c       $unwind$?WriteString@DataStream@@QEAAXAEBV?$Local@VString@v8@@@v8@@@Z 000000018002411c     bson.obj
 0002:0000911c       $unwind$_fassign_l         000000018002411c     LIBCMT:cvt.obj
 0002:00009124       $unwind$??$New@VInt32@v8@@H@Nan@@YA?AV?$Local@VInt32@v8@@@v8@@H@Z 0000000180024124     bson.obj
 0002:00009124       $unwind$?WriteData@DataStream@@QEAAXPEBD_K@Z 0000000180024124     bson.obj
 0002:00009124       $unwind$??$New@VUint32@v8@@I@Nan@@YA?AV?$Local@VUint32@v8@@@v8@@I@Z 0000000180024124     bson.obj
 0002:00009130       $unwind$?WriteObjectId@DataStream@@QEAAXAEBV?$Local@VObject@v8@@@v8@@AEBV?$Local@VString@v8@@@3@@Z 0000000180024130     bson.obj
 0002:00009148       $unwind$?ThrowAllocatedStringException@@YAX_KPEBDZZ 0000000180024148     bson.obj
 0002:00009154       $unwind$?CheckKey@DataStream@@QEAAXAEBV?$Local@VString@v8@@@v8@@@Z 0000000180024154     bson.obj
 0002:00009174       $unwind$?ReadCString@BSONDeserializer@@QEAA?AV?$Local@VValue@v8@@@v8@@XZ 0000000180024174     bson.obj
 0002:00009184       $unwind$?ReadString@BSONDeserializer@@QEAA?AV?$Local@VString@v8@@@v8@@XZ 0000000180024184     bson.obj
 0002:00009194       $unwind$?ReadObjectId@BSONDeserializer@@QEAA?AV?$Local@VString@v8@@@v8@@XZ 0000000180024194     bson.obj
 0002:000091a8       $unwind$_cropzeros_l       00000001800241a8     LIBCMT:cvt.obj
 0002:000091a8       $unwind$_isleadbyte_l      00000001800241a8     LIBCMT:_wctype.obj
 0002:000091a8       $unwind$?getSystemCP@@YAHH@Z 00000001800241a8     LIBCMT:mbctype.obj
 0002:000091a8       $unwind$?DeserializeArray@BSONDeserializer@@AEAA?AV?$Local@VValue@v8@@@v8@@_N@Z 00000001800241a8     bson.obj
 0002:000091a8       $unwind$?DeserializeDocument@BSONDeserializer@@QEAA?AV?$Local@VValue@v8@@@v8@@_N@Z 00000001800241a8     bson.obj
 0002:000091a8       $unwind$isleadbyte         00000001800241a8     LIBCMT:_wctype.obj
 0002:000091a8       $unwind$isdigit            00000001800241a8     LIBCMT:_ctype.obj
 0002:000091a8       $unwind$_forcdecpt_l       00000001800241a8     LIBCMT:cvt.obj
 0002:000091a8       $unwind$??2@YAPEAX_K@Z     00000001800241a8     LIBCMT:new.obj
 0002:000091b0       $unwind$?DeserializeDocumentInternal@BSONDeserializer@@AEAA?AV?$Local@VValue@v8@@@v8@@_N@Z 00000001800241b0     bson.obj
 0002:000091d0       $unwind$?DeserializeArrayInternal@BSONDeserializer@@AEAA?AV?$Local@VValue@v8@@@v8@@_N@Z 00000001800241d0     bson.obj
 0002:000091e4       $unwind$?DeserializeValue@BSONDeserializer@@AEAA?AV?$Local@VValue@v8@@@v8@@W4BsonType@@_N@Z 00000001800241e4     bson.obj
 0002:00009200       $chain$1$?DeserializeValue@BSONDeserializer@@AEAA?AV?$Local@VValue@v8@@@v8@@W4BsonType@@_N@Z 0000000180024200     bson.obj
 0002:00009218       $chain$2$?DeserializeValue@BSONDeserializer@@AEAA?AV?$Local@VValue@v8@@@v8@@W4BsonType@@_N@Z 0000000180024218     bson.obj
 0002:0000922c       $chain$3$?DeserializeValue@BSONDeserializer@@AEAA?AV?$Local@VValue@v8@@@v8@@W4BsonType@@_N@Z 000000018002422c     bson.obj
 0002:0000923c       $unwind$??1BSON@@UEAA@XZ   000000018002423c     bson.obj
 0002:00009250       $stateUnwindMap$??1BSON@@UEAA@XZ 0000000180024250     bson.obj
 0002:000092c0       $ip2state$??1BSON@@UEAA@XZ 00000001800242c0     bson.obj
 0002:000092f8       $unwind$?Initialize@BSON@@SAXV?$Local@VObject@v8@@@v8@@@Z 00000001800242f8     bson.obj
 0002:00009310       $stateUnwindMap$?Initialize@BSON@@SAXV?$Local@VObject@v8@@@v8@@@Z 0000000180024310     bson.obj
 0002:00009340       $ip2state$?Initialize@BSON@@SAXV?$Local@VObject@v8@@@v8@@@Z 0000000180024340     bson.obj
 0002:000093a8       $unwind$?New@BSON@@CAXAEBV?$FunctionCallbackInfo@VValue@v8@@@Nan@@@Z 00000001800243a8     bson.obj
 0002:000093c8       $stateUnwindMap$?New@BSON@@CAXAEBV?$FunctionCallbackInfo@VValue@v8@@@Nan@@@Z 00000001800243c8     bson.obj
 0002:000093f0       $ip2state$?New@BSON@@CAXAEBV?$FunctionCallbackInfo@VValue@v8@@@Nan@@@Z 00000001800243f0     bson.obj
 0002:00009438       $unwind$?BSONDeserialize@BSON@@SAXAEBV?$FunctionCallbackInfo@VValue@v8@@@Nan@@@Z 0000000180024438     bson.obj
 0002:00009454       $stateUnwindMap$?BSONDeserialize@BSON@@SAXAEBV?$FunctionCallbackInfo@VValue@v8@@@Nan@@@Z 0000000180024454     bson.obj
 0002:000094a4       $tryMap$?BSONDeserialize@BSON@@SAXAEBV?$FunctionCallbackInfo@VValue@v8@@@Nan@@@Z 00000001800244a4     bson.obj
 0002:000094cc       $handlerMap$0$?BSONDeserialize@BSON@@SAXAEBV?$FunctionCallbackInfo@VValue@v8@@@Nan@@@Z 00000001800244cc     bson.obj
 0002:000094e0       $handlerMap$1$?BSONDeserialize@BSON@@SAXAEBV?$FunctionCallbackInfo@VValue@v8@@@Nan@@@Z 00000001800244e0     bson.obj
 0002:00009500       $ip2state$?BSONDeserialize@BSON@@SAXAEBV?$FunctionCallbackInfo@VValue@v8@@@Nan@@@Z 0000000180024500     bson.obj
 0002:000095a8       $unwind$?catch$0@?0??BSONDeserialize@BSON@@SAXAEBV?$FunctionCallbackInfo@VValue@v8@@@Nan@@@Z@4HA 00000001800245a8     bson.obj
 0002:000095a8       $unwind$?catch$1@?0??BSONDeserialize@BSON@@SAXAEBV?$FunctionCallbackInfo@VValue@v8@@@Nan@@@Z@4HA 00000001800245a8     bson.obj
 0002:000095bc       $unwind$?GetSerializeObject@BSON@@AEAA?AV?$Local@VObject@v8@@@v8@@AEBV?$Local@VValue@v8@@@3@@Z 00000001800245bc     bson.obj
 0002:000095c8       $unwind$?BSONSerialize@BSON@@SAXAEBV?$FunctionCallbackInfo@VValue@v8@@@Nan@@@Z 00000001800245c8     bson.obj
 0002:000095e0       $stateUnwindMap$?BSONSerialize@BSON@@SAXAEBV?$FunctionCallbackInfo@VValue@v8@@@Nan@@@Z 00000001800245e0     bson.obj
 0002:00009638       $tryMap$?BSONSerialize@BSON@@SAXAEBV?$FunctionCallbackInfo@VValue@v8@@@Nan@@@Z 0000000180024638     bson.obj
 0002:0000964c       $handlerMap$0$?BSONSerialize@BSON@@SAXAEBV?$FunctionCallbackInfo@VValue@v8@@@Nan@@@Z 000000018002464c     bson.obj
 0002:00009680       $ip2state$?BSONSerialize@BSON@@SAXAEBV?$FunctionCallbackInfo@VValue@v8@@@Nan@@@Z 0000000180024680     bson.obj
 0002:00009750       $unwind$?catch$0@?0??BSONSerialize@BSON@@SAXAEBV?$FunctionCallbackInfo@VValue@v8@@@Nan@@@Z@4HA 0000000180024750     bson.obj
 0002:00009764       $unwind$?catch$1@?0??BSONSerialize@BSON@@SAXAEBV?$FunctionCallbackInfo@VValue@v8@@@Nan@@@Z@4HA 0000000180024764     bson.obj
 0002:00009778       $unwind$?CalculateObjectSize@BSON@@SAXAEBV?$FunctionCallbackInfo@VValue@v8@@@Nan@@@Z 0000000180024778     bson.obj
 0002:0000978c       $stateUnwindMap$?CalculateObjectSize@BSON@@SAXAEBV?$FunctionCallbackInfo@VValue@v8@@@Nan@@@Z 000000018002478c     bson.obj
 0002:000097b0       $ip2state$?CalculateObjectSize@BSON@@SAXAEBV?$FunctionCallbackInfo@VValue@v8@@@Nan@@@Z 00000001800247b0     bson.obj
 0002:000097f8       $unwind$?SerializeWithBufferAndIndex@BSON@@SAXAEBV?$FunctionCallbackInfo@VValue@v8@@@Nan@@@Z 00000001800247f8     bson.obj
 0002:00009818       $stateUnwindMap$?SerializeWithBufferAndIndex@BSON@@SAXAEBV?$FunctionCallbackInfo@VValue@v8@@@Nan@@@Z 0000000180024818     bson.obj
 0002:00009860       $tryMap$?SerializeWithBufferAndIndex@BSON@@SAXAEBV?$FunctionCallbackInfo@VValue@v8@@@Nan@@@Z 0000000180024860     bson.obj
 0002:00009874       $handlerMap$0$?SerializeWithBufferAndIndex@BSON@@SAXAEBV?$FunctionCallbackInfo@VValue@v8@@@Nan@@@Z 0000000180024874     bson.obj
 0002:000098a0       $ip2state$?SerializeWithBufferAndIndex@BSON@@SAXAEBV?$FunctionCallbackInfo@VValue@v8@@@Nan@@@Z 00000001800248a0     bson.obj
 0002:00009958       $unwind$?catch$0@?0??SerializeWithBufferAndIndex@BSON@@SAXAEBV?$FunctionCallbackInfo@VValue@v8@@@Nan@@@Z@4HA 0000000180024958     bson.obj
 0002:0000996c       $unwind$?catch$1@?0??SerializeWithBufferAndIndex@BSON@@SAXAEBV?$FunctionCallbackInfo@VValue@v8@@@Nan@@@Z@4HA 000000018002496c     bson.obj
 0002:00009980       $unwind$?BSONDeserializeStream@BSON@@SAXAEBV?$FunctionCallbackInfo@VValue@v8@@@Nan@@@Z 0000000180024980     bson.obj
 0002:000099a0       $stateUnwindMap$?BSONDeserializeStream@BSON@@SAXAEBV?$FunctionCallbackInfo@VValue@v8@@@Nan@@@Z 00000001800249a0     bson.obj
 0002:000099f8       $tryMap$?BSONDeserializeStream@BSON@@SAXAEBV?$FunctionCallbackInfo@VValue@v8@@@Nan@@@Z 00000001800249f8     bson.obj
 0002:00009a0c       $handlerMap$0$?BSONDeserializeStream@BSON@@SAXAEBV?$FunctionCallbackInfo@VValue@v8@@@Nan@@@Z 0000000180024a0c     bson.obj
 0002:00009a20       $ip2state$?BSONDeserializeStream@BSON@@SAXAEBV?$FunctionCallbackInfo@VValue@v8@@@Nan@@@Z 0000000180024a20     bson.obj
 0002:00009ae0       $unwind$?catch$0@?0??BSONDeserializeStream@BSON@@SAXAEBV?$FunctionCallbackInfo@VValue@v8@@@Nan@@@Z@4HA 0000000180024ae0     bson.obj
 0002:00009af4       $unwind$??$Unwrap@VBSON@@@ObjectWrap@Nan@@SAPEAVBSON@@V?$Local@VObject@v8@@@v8@@@Z 0000000180024af4     bson.obj
 0002:00009afc       $unwind$?SerializeDocument@?$BSONSerializer@VDataStream@@@@QEAAXAEBV?$Local@VValue@v8@@@v8@@@Z 0000000180024afc     bson.obj
 0002:00009b08       $chain$4$?SerializeDocument@?$BSONSerializer@VDataStream@@@@QEAAXAEBV?$Local@VValue@v8@@@v8@@@Z 0000000180024b08     bson.obj
 0002:00009b2c       $chain$5$?SerializeDocument@?$BSONSerializer@VDataStream@@@@QEAAXAEBV?$Local@VValue@v8@@@v8@@@Z 0000000180024b2c     bson.obj
 0002:00009b3c       $chain$6$?SerializeDocument@?$BSONSerializer@VDataStream@@@@QEAAXAEBV?$Local@VValue@v8@@@v8@@@Z 0000000180024b3c     bson.obj
 0002:00009b60       $unwind$?SerializeDocument@?$BSONSerializer@VCountStream@@@@QEAAXAEBV?$Local@VValue@v8@@@v8@@@Z 0000000180024b60     bson.obj
 0002:00009b6c       $chain$1$?SerializeDocument@?$BSONSerializer@VCountStream@@@@QEAAXAEBV?$Local@VValue@v8@@@v8@@@Z 0000000180024b6c     bson.obj
 0002:00009b84       $chain$2$?SerializeDocument@?$BSONSerializer@VCountStream@@@@QEAAXAEBV?$Local@VValue@v8@@@v8@@@Z 0000000180024b84     bson.obj
 0002:00009b94       $unwind$?SerializeValue@?$BSONSerializer@VCountStream@@@@QEAAXPEAXV?$Local@VValue@v8@@@v8@@_N@Z 0000000180024b94     bson.obj
 0002:00009b94       $unwind$?SerializeValue@?$BSONSerializer@VDataStream@@@@QEAAXPEAXV?$Local@VValue@v8@@@v8@@_N@Z 0000000180024b94     bson.obj
 0002:00009ba4       $unwind$?SerializeArray@?$BSONSerializer@VDataStream@@@@QEAAXAEBV?$Local@VValue@v8@@@v8@@@Z 0000000180024ba4     bson.obj
 0002:00009bb0       $chain$2$?SerializeArray@?$BSONSerializer@VDataStream@@@@QEAAXAEBV?$Local@VValue@v8@@@v8@@@Z 0000000180024bb0     bson.obj
 0002:00009bcc       $chain$4$?SerializeArray@?$BSONSerializer@VDataStream@@@@QEAAXAEBV?$Local@VValue@v8@@@v8@@@Z 0000000180024bcc     bson.obj
 0002:00009be4       $chain$5$?SerializeArray@?$BSONSerializer@VDataStream@@@@QEAAXAEBV?$Local@VValue@v8@@@v8@@@Z 0000000180024be4     bson.obj
 0002:00009bf4       $chain$6$?SerializeArray@?$BSONSerializer@VDataStream@@@@QEAAXAEBV?$Local@VValue@v8@@@v8@@@Z 0000000180024bf4     bson.obj
 0002:00009c04       $unwind$?SerializeArray@?$BSONSerializer@VCountStream@@@@QEAAXAEBV?$Local@VValue@v8@@@v8@@@Z 0000000180024c04     bson.obj
 0002:00009c1c       $chain$0$?SerializeArray@?$BSONSerializer@VCountStream@@@@QEAAXAEBV?$Local@VValue@v8@@@v8@@@Z 0000000180024c1c     bson.obj
 0002:00009c30       $chain$1$?SerializeArray@?$BSONSerializer@VCountStream@@@@QEAAXAEBV?$Local@VValue@v8@@@v8@@@Z 0000000180024c30     bson.obj
 0002:00009c40       xdata                      0000000180024c40     node:node.exe
 0002:00009c48       $xdatasym                  0000000180024c48     LIBCMT:amdsecgs.obj
 0002:00009c4c       $unwind$sprintf            0000000180024c4c     LIBCMT:sprintf.obj
 0002:00009c58       $unwind$perror             0000000180024c58     LIBCMT:perror.obj
 0002:00009c7c       $unwind$_vsprintf_l        0000000180024c7c     LIBCMT:vsprintf.obj
 0002:00009c90       $xdatasym                  0000000180024c90     LIBCMT:memcpy.obj
 0002:00009c94       $unwind$__free_lconv_num   0000000180024c94     LIBCMT:free.obj
 0002:00009c94       $unwind$free               0000000180024c94     LIBCMT:free.obj
 0002:00009c9c       $unwind$swprintf           0000000180024c9c     LIBCMT:wassert.obj
 0002:00009ca4       $unwind$_wassert           0000000180024ca4     LIBCMT:wassert.obj
 0002:00009cc8       $unwind$_onexit            0000000180024cc8     LIBCMT:onexit.obj
 0002:00009cf8       $unwind$printf             0000000180024cf8     LIBCMT:printf.obj
 0002:00009d1c       $unwind$__freetlocinfo     0000000180024d1c     LIBCMT:crt0dat.obj
 0002:00009d1c       $unwind$?setSBCS@@YAXPEAUthreadmbcinfostruct@@@Z 0000000180024d1c     LIBCMT:crt0dat.obj
 0002:00009d1c       $unwind$_XcptFilter        0000000180024d1c     LIBCMT:crt0dat.obj
 0002:00009d1c       $unwind$xtow_s             0000000180024d1c     LIBCMT:crt0dat.obj
 0002:00009d1c       $unwind$?__StateFromIp@@YAHPEBU_s_FuncInfo@@PEAU_xDISPATCHER_CONTEXT@@_J@Z 0000000180024d1c     LIBCMT:crt0dat.obj
 0002:00009d1c       $unwind$_mtdeletelocks     0000000180024d1c     LIBCMT:crt0dat.obj
 0002:00009d1c       $unwind$_initterm          0000000180024d1c     LIBCMT:crt0dat.obj
 0002:00009d30       $unwind$doexit             0000000180024d30     LIBCMT:crt0dat.obj
 0002:00009d60       $unwind$_stricmp_l         0000000180024d60     LIBCMT:stricmp.obj
 0002:00009d60       $unwind$?x_ismbbtype_l@@YAHPEAUlocaleinfo_struct@@IHH@Z 0000000180024d60     LIBCMT:stricmp.obj
 0002:00009d70       $unwind$_CRT_INIT          0000000180024d70     LIBCMT:dllcrt0.obj
 0002:00009d90       $unwind$__DllMainCRTStartup 0000000180024d90     LIBCMT:dllcrt0.obj
 0002:00009db8       $xdatasym                  0000000180024db8     LIBCMT:strlen.obj
 0002:00009dbc       $unwind$_CxxThrowException 0000000180024dbc     LIBCMT:throw.obj
 0002:00009dcc       $unwind$?__FrameUnwindToEmptyState@@YAXPEA_KPEAU_xDISPATCHER_CONTEXT@@PEBU_s_FuncInfo@@@Z 0000000180024dcc     LIBCMT:trnsctrl.obj
 0002:00009de0       $unwind$_UnwindNestedFrames 0000000180024de0     LIBCMT:trnsctrl.obj
 0002:00009df4       $unwind$_CallSETranslator  0000000180024df4     LIBCMT:trnsctrl.obj
 0002:00009e14       $unwind$_CallSETranslator$filt$0 0000000180024e14     LIBCMT:trnsctrl.obj
 0002:00009e1c       $unwind$?_GetRangeOfTrysToCheck@@YAPEBU_s_TryBlockMapEntry@@PEA_KPEBU_s_FuncInfo@@HHPEAI2PEAU_xDISPATCHER_CONTEXT@@@Z 0000000180024e1c     LIBCMT:trnsctrl.obj
 0002:00009e1c       $unwind$parse_cmdline      0000000180024e1c     LIBCMT:trnsctrl.obj
 0002:00009e38       $unwind$?_GetEstablisherFrame@@YAPEA_KPEA_KPEAU_xDISPATCHER_CONTEXT@@PEBU_s_FuncInfo@@0@Z 0000000180024e38     LIBCMT:trnsctrl.obj
 0002:00009e50       $unwind$__CxxFrameHandler3 0000000180024e50     LIBCMT:trnsctrl.obj
 0002:00009e60       $unwind$?__SehTransFilter@@YAHPEAU_EXCEPTION_POINTERS@@PEAUEHExceptionRecord@@PEA_KPEAU_CONTEXT@@PEAU_xDISPATCHER_CONTEXT@@PEBU_s_FuncInfo@@PEAH@Z 0000000180024e60     LIBCMT:trnsctrl.obj
 0002:00009e74       $unwind$?_Copy_str@exception@std@@AEAAXPEBD@Z 0000000180024e74     LIBCMT:stdexcpt.obj
 0002:00009e84       $unwind$_itow_s            0000000180024e84     LIBCMT:invarg.obj
 0002:00009e84       $unwind$_cfltcvt_l         0000000180024e84     LIBCMT:invarg.obj
 0002:00009e84       $unwind$_invalid_parameter_noinfo 0000000180024e84     LIBCMT:invarg.obj
 0002:00009e84       $unwind$_vswprintf_c_l     0000000180024e84     LIBCMT:invarg.obj
 0002:00009e84       $unwind$wctomb_s           0000000180024e84     LIBCMT:invarg.obj
 0002:00009e8c       $unwind$_call_reportfault  0000000180024e8c     LIBCMT:invarg.obj
 0002:00009eac       $unwind$_flsbuf            0000000180024eac     LIBCMT:_flsbuf.obj
 0002:00009ec0       $unwind$_output_l          0000000180024ec0     LIBCMT:output.obj
 0002:00009ee4       $unwind$write_multi_char   0000000180024ee4     LIBCMT:output.obj
 0002:00009ee4       $unwind$write_multi_char   0000000180024ee4     LIBCMT:output.obj
 0002:00009ef8       $unwind$write_string       0000000180024ef8     LIBCMT:output.obj
 0002:00009ef8       $unwind$write_string       0000000180024ef8     LIBCMT:output.obj
 0002:00009f10       $xdatasym                  0000000180024f10     LIBCMT:memset.obj
 0002:00009f14       $unwind$__lock_fhandle     0000000180024f14     LIBCMT:osfinfo.obj
 0002:00009f40       $unwind$_write             0000000180024f40     LIBCMT:write.obj
 0002:00009f6c       $unwind$_write_nolock      0000000180024f6c     LIBCMT:write.obj
 0002:00009f90       $unwind$__C_specific_handler 0000000180024f90     LIBCMT:chandler.obj
 0002:00009fac       $unwind$__isa_available_init 0000000180024fac     LIBCMT:cpu_disp.obj
 0002:00009fc0       $unwind$_NMSG_WRITE        0000000180024fc0     LIBCMT:crt0msg.obj
 0002:00009fe4       $unwind$_freefls           0000000180024fe4     LIBCMT:tidtable.obj
 0002:0000a018       $unwind$_initptd           0000000180025018     LIBCMT:tidtable.obj
 0002:0000a04c       $unwind$fflush             000000018002504c     LIBCMT:fflush.obj
 0002:0000a070       $unwind$flsall             0000000180025070     LIBCMT:fflush.obj
 0002:0000a0b0       $unwind$setvbuf            00000001800250b0     LIBCMT:setvbuf.obj
 0002:0000a0dc       $unwind$fwprintf           00000001800250dc     LIBCMT:fwprintf.obj
 0002:0000a100       $unwind$_vswprintf_helper  0000000180025100     LIBCMT:vswprnc.obj
 0002:0000a118       $unwind$raise              0000000180025118     LIBCMT:winsig.obj
 0002:0000a148       $unwind$_setmbcp$fin$0     0000000180025148     LIBCMT:winsig.obj
 0002:0000a148       $unwind$__lock_fhandle$fin$0 0000000180025148     LIBCMT:winsig.obj
 0002:0000a148       $unwind$fwprintf$fin$0     0000000180025148     LIBCMT:winsig.obj
 0002:0000a148       $unwind$__updatetmbcinfo$fin$0 0000000180025148     LIBCMT:winsig.obj
 0002:0000a148       $unwind$__DllMainCRTStartup$filt$0 0000000180025148     LIBCMT:winsig.obj
 0002:0000a148       $unwind$_lseeki64$fin$0    0000000180025148     LIBCMT:winsig.obj
 0002:0000a148       $unwind$_IsNonwritableInCurrentImage$filt$0 0000000180025148     LIBCMT:winsig.obj
 0002:0000a148       $unwind$__CxxCallCatchBlock$filt$0 0000000180025148     LIBCMT:winsig.obj
 0002:0000a148       $unwind$printf$fin$0       0000000180025148     LIBCMT:winsig.obj
 0002:0000a148       $unwind$_ioinit$fin$0      0000000180025148     LIBCMT:winsig.obj
 0002:0000a148       $unwind$fclose$fin$0       0000000180025148     LIBCMT:winsig.obj
 0002:0000a148       $unwind$_mtinitlocknum$fin$0 0000000180025148     LIBCMT:winsig.obj
 0002:0000a148       $unwind$fflush$fin$0       0000000180025148     LIBCMT:winsig.obj
 0002:0000a148       $unwind$__DestructExceptionObject$filt$0 0000000180025148     LIBCMT:winsig.obj
 0002:0000a148       $unwind$_commit$fin$0      0000000180025148     LIBCMT:winsig.obj
 0002:0000a148       $unwind$__FrameUnwindToState$filt$0 0000000180025148     LIBCMT:winsig.obj
 0002:0000a148       $unwind$perror$fin$0       0000000180025148     LIBCMT:winsig.obj
 0002:0000a148       $unwind$_fcloseall$fin$0   0000000180025148     LIBCMT:winsig.obj
 0002:0000a148       $unwind$_freefls$fin$1     0000000180025148     LIBCMT:winsig.obj
 0002:0000a148       $unwind$_initptd$fin$0     0000000180025148     LIBCMT:winsig.obj
 0002:0000a148       $unwind$__FrameUnwindToState$fin$1 0000000180025148     LIBCMT:winsig.obj
 0002:0000a148       $unwind$_write$fin$0       0000000180025148     LIBCMT:winsig.obj
 0002:0000a148       $unwind$flsall$fin$1       0000000180025148     LIBCMT:winsig.obj
 0002:0000a148       $unwind$setvbuf$fin$0      0000000180025148     LIBCMT:winsig.obj
 0002:0000a148       $unwind$_close$fin$0       0000000180025148     LIBCMT:winsig.obj
 0002:0000a148       $unwind$_initptd$fin$1     0000000180025148     LIBCMT:winsig.obj
 0002:0000a148       $unwind$_onexit$fin$0      0000000180025148     LIBCMT:winsig.obj
 0002:0000a148       $unwind$flsall$fin$0       0000000180025148     LIBCMT:winsig.obj
 0002:0000a148       $unwind$raise$fin$0        0000000180025148     LIBCMT:winsig.obj
 0002:0000a148       $unwind$_freefls$fin$0     0000000180025148     LIBCMT:winsig.obj
 0002:0000a148       $unwind$doexit$fin$0       0000000180025148     LIBCMT:winsig.obj
 0002:0000a148       $unwind$__updatetlocinfo$fin$0 0000000180025148     LIBCMT:winsig.obj
 0002:0000a148       $unwind$_CRT_INIT$fin$0    0000000180025148     LIBCMT:winsig.obj
 0002:0000a148       $unwind$_locterm$fin$0     0000000180025148     LIBCMT:winsig.obj
 0002:0000a148       $unwind$?fin$0@?0??_Type_info_dtor@type_info@@CAXPEAV1@@Z@4HA 0000000180025148     LIBCMT:winsig.obj
 0002:0000a150       $unwind$__crtMessageBoxW   0000000180025150     LIBCMT:crtmboxw.obj
 0002:0000a16c       $unwind$GetTableIndexFromLocaleName 000000018002516c     LIBCMT:crtheap.obj
 0002:0000a16c       $unwind$_calloc_crt        000000018002516c     LIBCMT:crtheap.obj
 0002:0000a16c       $unwind$_malloc_crt        000000018002516c     LIBCMT:crtheap.obj
 0002:0000a16c       $unwind$__TypeMatch        000000018002516c     LIBCMT:crtheap.obj
 0002:0000a16c       $unwind$_realloc_crt       000000018002516c     LIBCMT:crtheap.obj
 0002:0000a184       $unwind$_stbuf             0000000180025184     LIBCMT:_sftbuf.obj
 0002:0000a184       $unwind$_free_osfhnd       0000000180025184     LIBCMT:_sftbuf.obj
 0002:0000a194       $unwind$_ftbuf             0000000180025194     LIBCMT:_sftbuf.obj
 0002:0000a1a0       $xdatasym                  00000001800251a0     LIBCMT:strcmp.obj
 0002:0000a1a4       $unwind$?_Type_info_dtor@type_info@@CAXPEAV1@@Z 00000001800251a4     LIBCMT:typname.obj
 0002:0000a1c4       $unwind$_mtinitlocknum     00000001800251c4     LIBCMT:mlock.obj
 0002:0000a1ec       $unwind$__crtCaptureCurrentContext 00000001800251ec     LIBCMT:winapisupp.obj
 0002:0000a1f8       $unwind$__crtCapturePreviousContext 00000001800251f8     LIBCMT:winapisupp.obj
 0002:0000a204       $unwind$_IsNonwritableInCurrentImage 0000000180025204     LIBCMT:pesect.obj
 0002:0000a228       $unwind$?terminate@@YAXXZ  0000000180025228     LIBCMT:hooks.obj
 0002:0000a248       $unwind$?_inconsistency@@YAXXZ 0000000180025248     LIBCMT:hooks.obj
 0002:0000a268       $unwind$__updatetmbcinfo   0000000180025268     LIBCMT:mbctype.obj
 0002:0000a28c       $unwind$_setmbcp           000000018002528c     LIBCMT:mbctype.obj
 0002:0000a2bc       $unwind$_setmbcp_nolock    00000001800252bc     LIBCMT:mbctype.obj
 0002:0000a2dc       $unwind$?setSBUpLow@@YAXPEAUthreadmbcinfostruct@@@Z 00000001800252dc     LIBCMT:mbctype.obj
 0002:0000a2f8       $unwind$__updatetlocinfo   00000001800252f8     LIBCMT:localref.obj
 0002:0000a318       $unwind$_tolower_l         0000000180025318     LIBCMT:tolower.obj
 0002:0000a328       $unwind$_locterm           0000000180025328     LIBCMT:wsetloca.obj
 0002:0000a348       $unwind$_ioinit            0000000180025348     LIBCMT:ioinit.obj
 0002:0000a390       $unwind$_setenvp           0000000180025390     LIBCMT:stdenvp.obj
 0002:0000a390       $unwind$_invalid_parameter 0000000180025390     LIBCMT:stdenvp.obj
 0002:0000a3a4       $unwind$__security_init_cookie 00000001800253a4     LIBCMT:gs_support.obj
 0002:0000a3b0       $unwind$_cftof2_l          00000001800253b0     LIBCMT:a_env.obj
 0002:0000a3b0       $unwind$__crtGetEnvironmentStringsA 00000001800253b0     LIBCMT:a_env.obj
 0002:0000a3c8       $unwind$__CxxCallCatchBlock 00000001800253c8     LIBCMT:frame.obj
 0002:0000a408       $unwind$__CxxCallCatchBlock$fin$1 0000000180025408     LIBCMT:frame.obj
 0002:0000a414       $unwind$__FrameUnwindToState 0000000180025414     LIBCMT:frame.obj
 0002:0000a450       $unwind$?FindHandler@@YAXPEAUEHExceptionRecord@@PEA_KPEAU_CONTEXT@@PEAU_xDISPATCHER_CONTEXT@@PEBU_s_FuncInfo@@EH1@Z 0000000180025450     LIBCMT:frame.obj
 0002:0000a46c       $unwind$?CatchIt@@YAXPEAUEHExceptionRecord@@PEA_KPEAU_CONTEXT@@PEAU_xDISPATCHER_CONTEXT@@PEBU_s_FuncInfo@@PEBU_s_HandlerType@@PEBU_s_CatchableType@@PEBU_s_TryBlockMapEntry@@H1EE@Z 000000018002546c     LIBCMT:frame.obj
 0002:0000a484       $unwind$__BuildCatchObject 0000000180025484     LIBCMT:frame.obj
 0002:0000a4b0       $unwind$?FindHandlerForForeignException@@YAXPEAUEHExceptionRecord@@PEA_KPEAU_CONTEXT@@PEAU_xDISPATCHER_CONTEXT@@PEBU_s_FuncInfo@@HH1@Z 00000001800254b0     LIBCMT:frame.obj
 0002:0000a4c8       $unwind$__DestructExceptionObject 00000001800254c8     LIBCMT:frame.obj
 0002:0000a4e8       $unwind$?IsInExceptionSpec@@YAEPEAUEHExceptionRecord@@PEBU_s_ESTypeList@@@Z 00000001800254e8     LIBCMT:frame.obj
 0002:0000a504       $unwind$__InternalCxxFrameHandler 0000000180025504     LIBCMT:frame.obj
 0002:0000a51c       $unwind$__BuildCatchObjectHelper 000000018002551c     LIBCMT:frame.obj
 0002:0000a54c       $unwind$_cftoe2_l          000000018002554c     LIBCMT:cvt.obj
 0002:0000a568       $unwind$_cftoe_l           0000000180025568     LIBCMT:cvt.obj
 0002:0000a580       $unwind$_cftoa_l           0000000180025580     LIBCMT:cvt.obj
 0002:0000a59c       $unwind$_cftof_l           000000018002559c     LIBCMT:cvt.obj
 0002:0000a5b4       $unwind$_cftog_l           00000001800255b4     LIBCMT:cvt.obj
 0002:0000a5cc       $unwind$_lseeki64          00000001800255cc     LIBCMT:lseeki64.obj
 0002:0000a5f8       $unwind$realloc            00000001800255f8     LIBCMT:lseeki64.obj
 0002:0000a5f8       $unwind$_ioterm            00000001800255f8     LIBCMT:lseeki64.obj
 0002:0000a5f8       $unwind$malloc             00000001800255f8     LIBCMT:lseeki64.obj
 0002:0000a5f8       $unwind$memcpy_s           00000001800255f8     LIBCMT:lseeki64.obj
 0002:0000a5f8       $unwind$_mtinitlocks       00000001800255f8     LIBCMT:lseeki64.obj
 0002:0000a5f8       $unwind$_DllMainCRTStartup 00000001800255f8     LIBCMT:lseeki64.obj
 0002:0000a5f8       $unwind$_lseeki64_nolock   00000001800255f8     LIBCMT:lseeki64.obj
 0002:0000a5f8       $unwind$_flush             00000001800255f8     LIBCMT:lseeki64.obj
 0002:0000a608       $unwind$_wctomb_s_l        0000000180025608     LIBCMT:wctomb.obj
 0002:0000a618       $unwind$_mbtowc_l          0000000180025618     LIBCMT:mbtowc.obj
 0002:0000a630       $unwind$__report_gsfailure 0000000180025630     LIBCMT:putwch.obj
 0002:0000a630       $unwind$_putwch_nolock     0000000180025630     LIBCMT:putwch.obj
 0002:0000a638       $xdatasym                  0000000180025638     LIBCMT:chkstk.obj
 0002:0000a640       $xdatasym                  0000000180025640     LIBCMT:jmpuwind.obj
 0002:0000a654       $unwind$_fcloseall         0000000180025654     LIBCMT:closeall.obj
 0002:0000a67c       $unwind$_commit            000000018002567c     LIBCMT:commit.obj
 0002:0000a6a4       $unwind$_woutput_l         00000001800256a4     LIBCMT:woutput.obj
 0002:0000a6c8       $unwind$__crtLCMapStringEx 00000001800256c8     LIBCMT:winapinls.obj
 0002:0000a6d8       $xdatasym                  00000001800256d8     LIBCMT:fpsr.obj
 0002:0000a6e0       $unwind$__crtLCMapStringA  00000001800256e0     LIBCMT:a_map.obj
 0002:0000a6f0       $unwind$?__crtLCMapStringA_stat@@YAHPEAUlocaleinfo_struct@@PEB_WKPEBDHPEADHHH@Z 00000001800256f0     LIBCMT:a_map.obj
 0002:0000a718       $unwind$__crtGetStringTypeA 0000000180025718     LIBCMT:a_str.obj
 0002:0000a728       $unwind$?__crtGetStringTypeA_stat@@YAHPEAUlocaleinfo_struct@@KPEBDHPEAGHH@Z 0000000180025728     LIBCMT:a_str.obj
 0002:0000a750       $unwind$__free_lconv_mon   0000000180025750     LIBCMT:initmon.obj
 0002:0000a750       $unwind$__free_lc_time     0000000180025750     LIBCMT:initmon.obj
 0002:0000a758       $unwind$_isctype_l         0000000180025758     LIBCMT:isctype.obj
 0002:0000a768       $xdatasym                  0000000180025768     LIBCMT:memcmp.obj
 0002:0000a770       $xdatasym                  0000000180025770     LIBCMT:handlers.obj
 0002:0000a778       $unwind$strchr             0000000180025778     LIBCMT:strrchr.obj
 0002:0000a778       $unwind$strrchr            0000000180025778     LIBCMT:strrchr.obj
 0002:0000a780       $unwind$_atodbl_l          0000000180025780     LIBCMT:atodbl.obj
 0002:0000a794       $unwind$__crt_atoflt_l     0000000180025794     LIBCMT:atodbl.obj
 0002:0000a7a8       $unwind$_fltout2           00000001800257a8     LIBCMT:cfout.obj
 0002:0000a7c0       $unwind$__dtold            00000001800257c0     LIBCMT:cfout.obj
 0002:0000a7c8       $unwind$_cfltcvt           00000001800257c8     LIBCMT:initcon.obj
 0002:0000a7c8       $unwind$__initconout       00000001800257c8     LIBCMT:initcon.obj
 0002:0000a7d0       $unwind$fclose             00000001800257d0     LIBCMT:fclose.obj
 0002:0000a7f4       $unwind$_fputwc_nolock     00000001800257f4     LIBCMT:fputwc.obj
 0002:0000a810       $unwind$_ld12tod           0000000180025810     LIBCMT:intrncvt.obj
 0002:0000a810       $unwind$_ld12tof           0000000180025810     LIBCMT:intrncvt.obj
 0002:0000a834       $unwind$__strgtold12_l     0000000180025834     LIBCMT:strgtold.obj
 0002:0000a858       $unwind$$I10_OUTPUT        0000000180025858     LIBCMT:x10fout.obj
 0002:0000a87c       $unwind$_close             000000018002587c     LIBCMT:close.obj
 0002:0000a8a4       $unwind$_flswbuf           00000001800258a4     LIBCMT:_flswbuf.obj
 0002:0000a8b8       $unwind$__mtold12          00000001800258b8     LIBCMT:mantold.obj
 0002:0000a8d0       $unwind$__delayLoadHelper2 00000001800258d0     DelayImp:delayhlp.obj
 0002:0000c8b0       .edata                     00000001800278b0     bson.exp
 0002:0000c8d8       rgpv                       00000001800278d8     bson.exp
 0002:0000c8dc       rgszName                   00000001800278dc     bson.exp
 0002:0000c8e0       rgwOrd                     00000001800278e0     bson.exp
 0002:0000c8e2       szName                     00000001800278e2     bson.exp
 0002:0000c8ec       $N00001                    00000001800278ec     bson.exp
 0002:0000cb64       .idata$6                   0000000180027b64     kernel32:KERNEL32.dll
 0003:00000000       errtable                   0000000180029000     LIBCMT:dosmap.obj
 0003:00000168       ErrnoNoMem                 0000000180029168     LIBCMT:dosmap.obj
 0003:0000016c       DoserrorNoMem              000000018002916c     LIBCMT:dosmap.obj
 0003:00000170       _assertstring              0000000180029170     LIBCMT:wassert.obj
 0003:000001c0       dotdotdot                  00000001800291c0     LIBCMT:wassert.obj
 0003:000001c8       newline                    00000001800291c8     LIBCMT:wassert.obj
 0003:000001d0       dblnewline                 00000001800291d0     LIBCMT:wassert.obj
 0003:000005f0       ?dazSupported@?1??_ctrlfp@@9@9 00000001800295f0     LIBCMT:fpctrl.obj
 0003:00000600       _locktable                 0000000180029600     LIBCMT:mlock.obj
 0003:00000840       ?isPackaged@?1??__crtIsPackagedApp@@9@9 0000000180029840     LIBCMT:winapisupp.obj
 0003:00000cd8       __rgctypeflag              0000000180029cd8     LIBCMT:mbctype.obj
 0003:00000ce0       __rgcode_page_info         0000000180029ce0     LIBCMT:mbctype.obj
 0003:00001210       _ctype_loc_style           000000018002a210     LIBCMT:wsetloca.obj
 0003:00001280       ?_names@?1??_get_fname@@9@9 000000018002a280     LIBCMT:fpexcept.obj
 0003:00001550       DoubleFormat               000000018002a550     LIBCMT:intrncvt.obj
 0003:00001568       FloatFormat                000000018002a568     LIBCMT:intrncvt.obj
 0003:00001850       _module                    000000018002a850     bson.obj
 0003:00001c88       allocator_arg              000000018002ac88     libcpmt:syserror.obj
 0003:00001c89       piecewise_construct        000000018002ac89     libcpmt:syserror.obj
 0003:00001c8a       _Tuple_alloc               000000018002ac8a     libcpmt:xthrow.obj
 0003:00001c8b       ignore                     000000018002ac8b     libcpmt:xthrow.obj
 0003:00001c8c       allocator_arg              000000018002ac8c     libcpmt:xthrow.obj
 0003:00001c8d       piecewise_construct        000000018002ac8d     libcpmt:xthrow.obj
 0003:00001c90       __enable_percent_n         000000018002ac90     LIBCMT:printf.obj
 0003:00001cf0       __proc_attached            000000018002acf0     LIBCMT:dllcrt0.obj
 0003:00001d10       GS_ExceptionRecord         000000018002ad10     LIBCMT:gs_report.obj
 0003:00001db0       GS_ContextRecord           000000018002adb0     LIBCMT:gs_report.obj
 0003:00002280       DebuggerWasPresent         000000018002b280     LIBCMT:gs_report.obj
 0003:000022c0       ?outmsg@?8??_NMSG_WRITE@@9@9 000000018002b2c0     LIBCMT:crt0msg.obj
 0003:000028f8       ctrlc_action               000000018002b8f8     LIBCMT:winsig.obj
 0003:00002900       ctrlbreak_action           000000018002b900     LIBCMT:winsig.obj
 0003:00002908       abort_action               000000018002b908     LIBCMT:winsig.obj
 0003:00002910       term_action                000000018002b910     LIBCMT:winsig.obj
 0003:00002918       ConsoleCtrlHandler_Installed 000000018002b918     LIBCMT:winsig.obj
 0003:00002920       ?pfnMessageBox@?1??__crtMessageBoxW@@9@9 000000018002b920     LIBCMT:crtmboxw.obj
 0003:00002928       ?pfnGetActiveWindow@?1??__crtMessageBoxW@@9@9 000000018002b928     LIBCMT:crtmboxw.obj
 0003:00002930       ?pfnGetLastActivePopup@?1??__crtMessageBoxW@@9@9 000000018002b930     LIBCMT:crtmboxw.obj
 0003:00002938       ?pfnGetProcessWindowStation@?1??__crtMessageBoxW@@9@9 000000018002b938     LIBCMT:crtmboxw.obj
 0003:00002940       ?pfnGetUserObjectInformation@?1??__crtMessageBoxW@@9@9 000000018002b940     LIBCMT:crtmboxw.obj
 0003:00002968       __type_info_root_node      000000018002b968     LIBCMT:typname.obj
 0003:00002980       lclcritsects               000000018002b980     LIBCMT:mlock.obj
 0003:00002bb8       g_pfnRtlGenRandom          000000018002bbb8     LIBCMT:rand_s.obj
 0003:00002be0       fSystemSet                 000000018002bbe0     LIBCMT:mbctype.obj
 0003:00002df0       ?_pgmname@?1??_setargv@@9@9 000000018002bdf0     LIBCMT:stdargv.obj
 0003:00002f00       __crtCallProc              000000018002bf00     LIBCMT:winapinls.obj
 0003:00002f50       heap                       000000018002bf50     LIBCMT:undname.obj
 0003:00002fb8       allocator_arg              000000018002bfb8     bson.obj
 0003:00002fb9       piecewise_construct        000000018002bfb9     bson.obj
 0004:00000000       $pdata$?FunctionCallbackWrapper@imp@Nan@@YAXAEBV?$FunctionCallbackInfo@VValue@v8@@@v8@@@Z 000000018002e000     bson.obj
 0004:0000000c       $pdata$?New@?$Factory@VFunctionTemplate@v8@@@imp@Nan@@SA?AV?$Local@VFunctionTemplate@v8@@@v8@@P6AXAEBV?$FunctionCallbackInfo@VValue@v8@@@3@@ZV?$Local@VValue@v8@@@5@V?$Local@VSignature@v8@@@5@@Z 000000018002e00c     bson.obj
 0004:00000018       $pdata$??1ObjectWrap@Nan@@UEAA@XZ 000000018002e018     bson.obj
 0004:00000024       $pdata$?Wrap@ObjectWrap@Nan@@IEAAXV?$Local@VObject@v8@@@v8@@@Z 000000018002e024     bson.obj
 0004:00000030       $pdata$?Ref@ObjectWrap@Nan@@MEAAXXZ 000000018002e030     bson.obj
 0004:0000003c       $pdata$?Unref@ObjectWrap@Nan@@MEAAXXZ 000000018002e03c     bson.obj
 0004:00000048       $pdata$?WeakCallback@ObjectWrap@Nan@@CAXAEBV?$WeakCallbackInfo@VObjectWrap@Nan@@@v8@@@Z 000000018002e048     bson.obj
 0004:00000054       $pdata$??_GObjectWrap@Nan@@UEAAPEAXI@Z 000000018002e054     bson.obj
 0004:00000060       $pdata$?WriteByte@DataStream@@QEAAXH@Z 000000018002e060     bson.obj
 0004:0000006c       $pdata$?WriteInt32@DataStream@@QEAAXH@Z 000000018002e06c     bson.obj
 0004:00000078       $pdata$?WriteLengthPrefixedString@DataStream@@QEAAXAEBV?$Local@VString@v8@@@v8@@@Z 000000018002e078     bson.obj
 0004:00000084       $pdata$?WriteString@DataStream@@QEAAXAEBV?$Local@VString@v8@@@v8@@@Z 000000018002e084     bson.obj
 0004:00000090       $pdata$?WriteData@DataStream@@QEAAXPEBD_K@Z 000000018002e090     bson.obj
 0004:0000009c       $pdata$?BeginWriteSize@DataStream@@QEAAPEAXXZ 000000018002e09c     bson.obj
 0004:000000a8       $pdata$?WriteObjectId@DataStream@@QEAAXAEBV?$Local@VObject@v8@@@v8@@AEBV?$Local@VString@v8@@@3@@Z 000000018002e0a8     bson.obj
 0004:000000b4       $pdata$?ThrowAllocatedStringException@@YAX_KPEBDZZ 000000018002e0b4     bson.obj
 0004:000000c0       $pdata$?CheckKey@DataStream@@QEAAXAEBV?$Local@VString@v8@@@v8@@@Z 000000018002e0c0     bson.obj
 0004:000000cc       $pdata$?ReadCString@BSONDeserializer@@QEAA?AV?$Local@VValue@v8@@@v8@@XZ 000000018002e0cc     bson.obj
 0004:000000d8       $pdata$?ReadString@BSONDeserializer@@QEAA?AV?$Local@VString@v8@@@v8@@XZ 000000018002e0d8     bson.obj
 0004:000000e4       $pdata$?ReadObjectId@BSONDeserializer@@QEAA?AV?$Local@VString@v8@@@v8@@XZ 000000018002e0e4     bson.obj
 0004:000000f0       $pdata$?DeserializeDocument@BSONDeserializer@@QEAA?AV?$Local@VValue@v8@@@v8@@_N@Z 000000018002e0f0     bson.obj
 0004:000000fc       $pdata$?DeserializeDocumentInternal@BSONDeserializer@@AEAA?AV?$Local@VValue@v8@@@v8@@_N@Z 000000018002e0fc     bson.obj
 0004:00000108       $pdata$?DeserializeArray@BSONDeserializer@@AEAA?AV?$Local@VValue@v8@@@v8@@_N@Z 000000018002e108     bson.obj
 0004:00000114       $pdata$?DeserializeArrayInternal@BSONDeserializer@@AEAA?AV?$Local@VValue@v8@@@v8@@_N@Z 000000018002e114     bson.obj
 0004:00000120       $pdata$?DeserializeValue@BSONDeserializer@@AEAA?AV?$Local@VValue@v8@@@v8@@W4BsonType@@_N@Z 000000018002e120     bson.obj
 0004:0000012c       $pdata$1$?DeserializeValue@BSONDeserializer@@AEAA?AV?$Local@VValue@v8@@@v8@@W4BsonType@@_N@Z 000000018002e12c     bson.obj
 0004:00000138       $pdata$2$?DeserializeValue@BSONDeserializer@@AEAA?AV?$Local@VValue@v8@@@v8@@W4BsonType@@_N@Z 000000018002e138     bson.obj
 0004:00000144       $pdata$3$?DeserializeValue@BSONDeserializer@@AEAA?AV?$Local@VValue@v8@@@v8@@W4BsonType@@_N@Z 000000018002e144     bson.obj
 0004:00000150       $pdata$??_GBSON@@UEAAPEAXI@Z 000000018002e150     bson.obj
 0004:0000015c       $pdata$??1BSON@@UEAA@XZ    000000018002e15c     bson.obj
 0004:00000168       $pdata$?Initialize@BSON@@SAXV?$Local@VObject@v8@@@v8@@@Z 000000018002e168     bson.obj
 0004:00000174       $pdata$?New@BSON@@CAXAEBV?$FunctionCallbackInfo@VValue@v8@@@Nan@@@Z 000000018002e174     bson.obj
 0004:00000180       $pdata$?BSONDeserialize@BSON@@SAXAEBV?$FunctionCallbackInfo@VValue@v8@@@Nan@@@Z 000000018002e180     bson.obj
 0004:0000018c       $pdata$?GetSerializeObject@BSON@@AEAA?AV?$Local@VObject@v8@@@v8@@AEBV?$Local@VValue@v8@@@3@@Z 000000018002e18c     bson.obj
 0004:00000198       $pdata$?BSONSerialize@BSON@@SAXAEBV?$FunctionCallbackInfo@VValue@v8@@@Nan@@@Z 000000018002e198     bson.obj
 0004:000001a4       $pdata$?CalculateObjectSize@BSON@@SAXAEBV?$FunctionCallbackInfo@VValue@v8@@@Nan@@@Z 000000018002e1a4     bson.obj
 0004:000001b0       $pdata$?SerializeWithBufferAndIndex@BSON@@SAXAEBV?$FunctionCallbackInfo@VValue@v8@@@Nan@@@Z 000000018002e1b0     bson.obj
 0004:000001bc       $pdata$?BSONDeserializeStream@BSON@@SAXAEBV?$FunctionCallbackInfo@VValue@v8@@@Nan@@@Z 000000018002e1bc     bson.obj
 0004:000001c8       $pdata$??$New@VInt32@v8@@H@Nan@@YA?AV?$Local@VInt32@v8@@@v8@@H@Z 000000018002e1c8     bson.obj
 0004:000001d4       $pdata$??$New@VUint32@v8@@I@Nan@@YA?AV?$Local@VUint32@v8@@@v8@@I@Z 000000018002e1d4     bson.obj
 0004:000001e0       $pdata$??$Unwrap@VBSON@@@ObjectWrap@Nan@@SAPEAVBSON@@V?$Local@VObject@v8@@@v8@@@Z 000000018002e1e0     bson.obj
 0004:000001ec       $pdata$?SerializeDocument@?$BSONSerializer@VDataStream@@@@QEAAXAEBV?$Local@VValue@v8@@@v8@@@Z 000000018002e1ec     bson.obj
 0004:000001f8       $pdata$4$?SerializeDocument@?$BSONSerializer@VDataStream@@@@QEAAXAEBV?$Local@VValue@v8@@@v8@@@Z 000000018002e1f8     bson.obj
 0004:00000204       $pdata$5$?SerializeDocument@?$BSONSerializer@VDataStream@@@@QEAAXAEBV?$Local@VValue@v8@@@v8@@@Z 000000018002e204     bson.obj
 0004:00000210       $pdata$6$?SerializeDocument@?$BSONSerializer@VDataStream@@@@QEAAXAEBV?$Local@VValue@v8@@@v8@@@Z 000000018002e210     bson.obj
 0004:0000021c       $pdata$?SerializeDocument@?$BSONSerializer@VCountStream@@@@QEAAXAEBV?$Local@VValue@v8@@@v8@@@Z 000000018002e21c     bson.obj
 0004:00000228       $pdata$1$?SerializeDocument@?$BSONSerializer@VCountStream@@@@QEAAXAEBV?$Local@VValue@v8@@@v8@@@Z 000000018002e228     bson.obj
 0004:00000234       $pdata$2$?SerializeDocument@?$BSONSerializer@VCountStream@@@@QEAAXAEBV?$Local@VValue@v8@@@v8@@@Z 000000018002e234     bson.obj
 0004:00000240       $pdata$?SerializeValue@?$BSONSerializer@VDataStream@@@@QEAAXPEAXV?$Local@VValue@v8@@@v8@@_N@Z 000000018002e240     bson.obj
 0004:0000024c       $pdata$?SerializeValue@?$BSONSerializer@VCountStream@@@@QEAAXPEAXV?$Local@VValue@v8@@@v8@@_N@Z 000000018002e24c     bson.obj
 0004:00000258       $pdata$?SerializeArray@?$BSONSerializer@VDataStream@@@@QEAAXAEBV?$Local@VValue@v8@@@v8@@@Z 000000018002e258     bson.obj
 0004:00000264       $pdata$2$?SerializeArray@?$BSONSerializer@VDataStream@@@@QEAAXAEBV?$Local@VValue@v8@@@v8@@@Z 000000018002e264     bson.obj
 0004:00000270       $pdata$4$?SerializeArray@?$BSONSerializer@VDataStream@@@@QEAAXAEBV?$Local@VValue@v8@@@v8@@@Z 000000018002e270     bson.obj
 0004:0000027c       $pdata$5$?SerializeArray@?$BSONSerializer@VDataStream@@@@QEAAXAEBV?$Local@VValue@v8@@@v8@@@Z 000000018002e27c     bson.obj
 0004:00000288       $pdata$6$?SerializeArray@?$BSONSerializer@VDataStream@@@@QEAAXAEBV?$Local@VValue@v8@@@v8@@@Z 000000018002e288     bson.obj
 0004:00000294       $pdata$?SerializeArray@?$BSONSerializer@VCountStream@@@@QEAAXAEBV?$Local@VValue@v8@@@v8@@@Z 000000018002e294     bson.obj
 0004:000002a0       $pdata$0$?SerializeArray@?$BSONSerializer@VCountStream@@@@QEAAXAEBV?$Local@VValue@v8@@@v8@@@Z 000000018002e2a0     bson.obj
 0004:000002ac       $pdata$1$?SerializeArray@?$BSONSerializer@VCountStream@@@@QEAAXAEBV?$Local@VValue@v8@@@v8@@@Z 000000018002e2ac     bson.obj
 0004:000002b8       $pdata$?load_exe_hook@@YAP6A_JXZIPEAUDelayLoadInfo@@@Z 000000018002e2b8     win_delay_load_hook.obj
 0004:000002d0       $pdata$??0bad_alloc@std@@QEAA@AEBV01@@Z 000000018002e2d0     libcpmt:xthrow.obj
 0004:000002dc       $pdata$??_Gbad_alloc@std@@UEAAPEAXI@Z 000000018002e2dc     libcpmt:xthrow.obj
 0004:000002f4       $pdata$sprintf             000000018002e2f4     LIBCMT:sprintf.obj
 0004:00000300       $pdata$perror              000000018002e300     LIBCMT:perror.obj
 0004:0000030c       $pdata$_vsprintf_l         000000018002e30c     LIBCMT:vsprintf.obj
 0004:00000324       $pdata$free                000000018002e324     LIBCMT:free.obj
 0004:00000330       $pdata$malloc              000000018002e330     LIBCMT:malloc.obj
 0004:0000033c       $pdata$strchr              000000018002e33c     LIBCMT:strchr.obj
 0004:00000348       $pdata$__doserrno          000000018002e348     LIBCMT:dosmap.obj
 0004:00000354       $pdata$_dosmaperr          000000018002e354     LIBCMT:dosmap.obj
 0004:00000360       $pdata$_errno              000000018002e360     LIBCMT:dosmap.obj
 0004:0000036c       $pdata$_wassert            000000018002e36c     LIBCMT:wassert.obj
 0004:00000378       $pdata$swprintf            000000018002e378     LIBCMT:wassert.obj
 0004:00000384       $pdata$__onexitinit        000000018002e384     LIBCMT:onexit.obj
 0004:00000390       $pdata$_onexit             000000018002e390     LIBCMT:onexit.obj
 0004:0000039c       $pdata$atexit              000000018002e39c     LIBCMT:onexit.obj
 0004:000003a8       $pdata$printf              000000018002e3a8     LIBCMT:printf.obj
 0004:000003b4       $pdata$??8type_info@@QEBA_NAEBV0@@Z 000000018002e3b4     LIBCMT:typinfo.obj
 0004:000003c0       $pdata$??_Gtype_info@@UEAAPEAXI@Z 000000018002e3c0     LIBCMT:typinfo.obj
 0004:000003cc       $pdata$__crtCorExitProcess 000000018002e3cc     LIBCMT:crt0dat.obj
 0004:000003d8       $pdata$__crtExitProcess    000000018002e3d8     LIBCMT:crt0dat.obj
 0004:000003e4       $pdata$__freeCrtMemory     000000018002e3e4     LIBCMT:crt0dat.obj
 0004:000003f0       $pdata$_amsg_exit          000000018002e3f0     LIBCMT:crt0dat.obj
 0004:000003fc       $pdata$_cinit              000000018002e3fc     LIBCMT:crt0dat.obj
 0004:00000408       $pdata$_init_pointers      000000018002e408     LIBCMT:crt0dat.obj
 0004:00000414       $pdata$_initterm           000000018002e414     LIBCMT:crt0dat.obj
 0004:00000420       $pdata$_initterm_e         000000018002e420     LIBCMT:crt0dat.obj
 0004:0000042c       $pdata$doexit              000000018002e42c     LIBCMT:crt0dat.obj
 0004:00000438       $pdata$??2@YAPEAX_K@Z      000000018002e438     LIBCMT:new.obj
 0004:00000444       $pdata$??0_LocaleUpdate@@QEAA@PEAUlocaleinfo_struct@@@Z 000000018002e444     LIBCMT:stricmp.obj
 0004:00000450       $pdata$_stricmp            000000018002e450     LIBCMT:stricmp.obj
 0004:0000045c       $pdata$_stricmp_l          000000018002e45c     LIBCMT:stricmp.obj
 0004:00000468       $pdata$_CRT_INIT           000000018002e468     LIBCMT:dllcrt0.obj
 0004:00000474       $pdata$_DllMainCRTStartup  000000018002e474     LIBCMT:dllcrt0.obj
 0004:00000480       $pdata$__DllMainCRTStartup 000000018002e480     LIBCMT:dllcrt0.obj
 0004:00000498       $pdata$_CxxThrowException  000000018002e498     LIBCMT:throw.obj
 0004:000004a4       $pdata$?_GetEstablisherFrame@@YAPEA_KPEA_KPEAU_xDISPATCHER_CONTEXT@@PEBU_s_FuncInfo@@0@Z 000000018002e4a4     LIBCMT:trnsctrl.obj
 0004:000004b0       $pdata$?_GetRangeOfTrysToCheck@@YAPEBU_s_TryBlockMapEntry@@PEA_KPEBU_s_FuncInfo@@HHPEAI2PEAU_xDISPATCHER_CONTEXT@@@Z 000000018002e4b0     LIBCMT:trnsctrl.obj
 0004:000004bc       $pdata$?__FrameUnwindToEmptyState@@YAXPEA_KPEAU_xDISPATCHER_CONTEXT@@PEBU_s_FuncInfo@@@Z 000000018002e4bc     LIBCMT:trnsctrl.obj
 0004:000004c8       $pdata$?__SehTransFilter@@YAHPEAU_EXCEPTION_POINTERS@@PEAUEHExceptionRecord@@PEA_KPEAU_CONTEXT@@PEAU_xDISPATCHER_CONTEXT@@PEBU_s_FuncInfo@@PEAH@Z 000000018002e4c8     LIBCMT:trnsctrl.obj
 0004:000004d4       $pdata$_CallSETranslator   000000018002e4d4     LIBCMT:trnsctrl.obj
 0004:000004e0       $pdata$_CreateFrameInfo    000000018002e4e0     LIBCMT:trnsctrl.obj
 0004:000004ec       $pdata$_FindAndUnlinkFrame 000000018002e4ec     LIBCMT:trnsctrl.obj
 0004:000004f8       $pdata$_GetImageBase       000000018002e4f8     LIBCMT:trnsctrl.obj
 0004:00000504       $pdata$_GetThrowImageBase  000000018002e504     LIBCMT:trnsctrl.obj
 0004:00000510       $pdata$_IsExceptionObjectToBeDestroyed 000000018002e510     LIBCMT:trnsctrl.obj
 0004:0000051c       $pdata$_SetImageBase       000000018002e51c     LIBCMT:trnsctrl.obj
 0004:00000528       $pdata$_SetThrowImageBase  000000018002e528     LIBCMT:trnsctrl.obj
 0004:00000534       $pdata$_UnwindNestedFrames 000000018002e534     LIBCMT:trnsctrl.obj
 0004:00000540       $pdata$__CxxFrameHandler3  000000018002e540     LIBCMT:trnsctrl.obj
 0004:0000054c       $pdata$??0exception@std@@QEAA@AEBQEBD@Z 000000018002e54c     LIBCMT:stdexcpt.obj
 0004:00000558       $pdata$??0exception@std@@QEAA@AEBV01@@Z 000000018002e558     LIBCMT:stdexcpt.obj
 0004:00000564       $pdata$??4exception@std@@QEAAAEAV01@AEBV01@@Z 000000018002e564     LIBCMT:stdexcpt.obj
 0004:00000570       $pdata$??_Gexception@std@@UEAAPEAXI@Z 000000018002e570     LIBCMT:stdexcpt.obj
 0004:0000057c       $pdata$?_Copy_str@exception@std@@AEAAXPEBD@Z 000000018002e57c     LIBCMT:stdexcpt.obj
 0004:00000588       $pdata$?_Tidy@exception@std@@AEAAXXZ 000000018002e588     LIBCMT:stdexcpt.obj
 0004:00000594       $pdata$__raise_securityfailure 000000018002e594     LIBCMT:gs_report.obj
 0004:000005a0       $pdata$__report_gsfailure  000000018002e5a0     LIBCMT:gs_report.obj
 0004:000005ac       $pdata$_call_reportfault   000000018002e5ac     LIBCMT:invarg.obj
 0004:000005b8       $pdata$_invalid_parameter  000000018002e5b8     LIBCMT:invarg.obj
 0004:000005c4       $pdata$_invalid_parameter_noinfo 000000018002e5c4     LIBCMT:invarg.obj
 0004:000005d0       $pdata$_invoke_watson      000000018002e5d0     LIBCMT:invarg.obj
 0004:000005dc       $pdata$_flsbuf             000000018002e5dc     LIBCMT:_flsbuf.obj
 0004:000005e8       $pdata$_output_l           000000018002e5e8     LIBCMT:output.obj
 0004:000005f4       $pdata$write_char          000000018002e5f4     LIBCMT:output.obj
 0004:00000600       $pdata$write_multi_char    000000018002e600     LIBCMT:output.obj
 0004:0000060c       $pdata$write_string        000000018002e60c     LIBCMT:output.obj
 0004:00000624       $pdata$__lock_fhandle      000000018002e624     LIBCMT:osfinfo.obj
 0004:00000630       $pdata$_free_osfhnd        000000018002e630     LIBCMT:osfinfo.obj
 0004:0000063c       $pdata$_get_osfhandle      000000018002e63c     LIBCMT:osfinfo.obj
 0004:00000648       $pdata$_write              000000018002e648     LIBCMT:write.obj
 0004:00000654       $pdata$_write_nolock       000000018002e654     LIBCMT:write.obj
 0004:00000660       $pdata$__C_specific_handler 000000018002e660     LIBCMT:chandler.obj
 0004:0000066c       $pdata$__isa_available_init 000000018002e66c     LIBCMT:cpu_disp.obj
 0004:00000678       $pdata$_heap_init          000000018002e678     LIBCMT:heapinit.obj
 0004:00000684       $pdata$_callnewh           000000018002e684     LIBCMT:handler.obj
 0004:00000690       $pdata$_FF_MSGBANNER       000000018002e690     LIBCMT:crt0msg.obj
 0004:0000069c       $pdata$_NMSG_WRITE         000000018002e69c     LIBCMT:crt0msg.obj
 0004:000006a8       $pdata$_freefls            000000018002e6a8     LIBCMT:tidtable.obj
 0004:000006b4       $pdata$_freeptd            000000018002e6b4     LIBCMT:tidtable.obj
 0004:000006c0       $pdata$_getptd             000000018002e6c0     LIBCMT:tidtable.obj
 0004:000006cc       $pdata$_getptd_noexit      000000018002e6cc     LIBCMT:tidtable.obj
 0004:000006d8       $pdata$_initptd            000000018002e6d8     LIBCMT:tidtable.obj
 0004:000006e4       $pdata$_mtinit             000000018002e6e4     LIBCMT:tidtable.obj
 0004:000006f0       $pdata$_mtterm             000000018002e6f0     LIBCMT:tidtable.obj
 0004:000006fc       $pdata$memcpy_s            000000018002e6fc     LIBCMT:memcpy_s.obj
 0004:00000708       $pdata$wcscat_s            000000018002e708     LIBCMT:wcscat_s.obj
 0004:00000714       $pdata$wcscpy_s            000000018002e714     LIBCMT:wcscpy_s.obj
 0004:00000720       $pdata$wcsncat_s           000000018002e720     LIBCMT:wcsncat_s.obj
 0004:0000072c       $pdata$abort               000000018002e72c     LIBCMT:abort.obj
 0004:00000738       $pdata$_set_error_mode     000000018002e738     LIBCMT:errmode.obj
 0004:00000744       $pdata$_itow_s             000000018002e744     LIBCMT:xtows.obj
 0004:00000750       $pdata$xtow_s              000000018002e750     LIBCMT:xtows.obj
 0004:0000075c       $pdata$__initstdio         000000018002e75c     LIBCMT:_file.obj
 0004:00000768       $pdata$__endstdio          000000018002e768     LIBCMT:_file.obj
 0004:00000774       $pdata$_lock_file          000000018002e774     LIBCMT:_file.obj
 0004:00000780       $pdata$_lock_file2         000000018002e780     LIBCMT:_file.obj
 0004:0000078c       $pdata$_fflush_nolock      000000018002e78c     LIBCMT:fflush.obj
 0004:00000798       $pdata$_flush              000000018002e798     LIBCMT:fflush.obj
 0004:000007a4       $pdata$fflush              000000018002e7a4     LIBCMT:fflush.obj
 0004:000007b0       $pdata$flsall              000000018002e7b0     LIBCMT:fflush.obj
 0004:000007bc       $pdata$setvbuf             000000018002e7bc     LIBCMT:setvbuf.obj
 0004:000007c8       $pdata$fwprintf            000000018002e7c8     LIBCMT:fwprintf.obj
 0004:000007d4       $pdata$_vswprintf_c_l      000000018002e7d4     LIBCMT:vswprnc.obj
 0004:000007e0       $pdata$_vswprintf_helper   000000018002e7e0     LIBCMT:vswprnc.obj
 0004:000007ec       $pdata$raise               000000018002e7ec     LIBCMT:winsig.obj
 0004:000007f8       $pdata$__crtMessageBoxW    000000018002e7f8     LIBCMT:crtmboxw.obj
 0004:00000804       $pdata$__GSHandlerCheck    000000018002e804     LIBCMT:gshandler.obj
 0004:00000810       $pdata$__GSHandlerCheckCommon 000000018002e810     LIBCMT:gshandler.obj
 0004:0000081c       $pdata$_msize              000000018002e81c     LIBCMT:msize.obj
 0004:00000828       $pdata$_calloc_crt         000000018002e828     LIBCMT:crtheap.obj
 0004:00000834       $pdata$_malloc_crt         000000018002e834     LIBCMT:crtheap.obj
 0004:00000840       $pdata$_realloc_crt        000000018002e840     LIBCMT:crtheap.obj
 0004:0000084c       $pdata$_ftbuf              000000018002e84c     LIBCMT:_sftbuf.obj
 0004:00000858       $pdata$_stbuf              000000018002e858     LIBCMT:_sftbuf.obj
 0004:00000870       $pdata$?_Type_info_dtor@type_info@@CAXPEAV1@@Z 000000018002e870     LIBCMT:typname.obj
 0004:0000087c       $pdata$_RTC_Initialize     000000018002e87c     LIBCMT:initsect.obj
 0004:00000888       $pdata$_RTC_Terminate      000000018002e888     LIBCMT:initsect.obj
 0004:00000894       $pdata$_lock               000000018002e894     LIBCMT:mlock.obj
 0004:000008a0       $pdata$_mtdeletelocks      000000018002e8a0     LIBCMT:mlock.obj
 0004:000008ac       $pdata$_mtinitlocknum      000000018002e8ac     LIBCMT:mlock.obj
 0004:000008b8       $pdata$_mtinitlocks        000000018002e8b8     LIBCMT:mlock.obj
 0004:000008c4       $pdata$__crtCaptureCurrentContext 000000018002e8c4     LIBCMT:winapisupp.obj
 0004:000008d0       $pdata$__crtCapturePreviousContext 000000018002e8d0     LIBCMT:winapisupp.obj
 0004:000008dc       $pdata$__crtInitializeCriticalSectionEx 000000018002e8dc     LIBCMT:winapisupp.obj
 0004:000008e8       $pdata$__crtIsPackagedApp  000000018002e8e8     LIBCMT:winapisupp.obj
 0004:000008f4       $pdata$__crtLoadWinApiPointers 000000018002e8f4     LIBCMT:winapisupp.obj
 0004:00000900       $pdata$__crtTerminateProcess 000000018002e900     LIBCMT:winapisupp.obj
 0004:0000090c       $pdata$__crtUnhandledException 000000018002e90c     LIBCMT:winapisupp.obj
 0004:00000918       $pdata$_IsNonwritableInCurrentImage 000000018002e918     LIBCMT:pesect.obj
 0004:00000924       $pdata$_initp_misc_cfltcvt_tab 000000018002e924     LIBCMT:cmiscdat.obj
 0004:00000930       $pdata$?_inconsistency@@YAXXZ 000000018002e930     LIBCMT:hooks.obj
 0004:0000093c       $pdata$?terminate@@YAXXZ   000000018002e93c     LIBCMT:hooks.obj
 0004:00000948       $pdata$_initp_eh_hooks     000000018002e948     LIBCMT:hooks.obj
 0004:00000954       $pdata$__initmbctable      000000018002e954     LIBCMT:mbctype.obj
 0004:00000960       $pdata$?getSystemCP@@YAHH@Z 000000018002e960     LIBCMT:mbctype.obj
 0004:0000096c       $pdata$?setSBCS@@YAXPEAUthreadmbcinfostruct@@@Z 000000018002e96c     LIBCMT:mbctype.obj
 0004:00000978       $pdata$?setSBUpLow@@YAXPEAUthreadmbcinfostruct@@@Z 000000018002e978     LIBCMT:mbctype.obj
 0004:00000984       $pdata$__updatetmbcinfo    000000018002e984     LIBCMT:mbctype.obj
 0004:00000990       $pdata$_setmbcp            000000018002e990     LIBCMT:mbctype.obj
 0004:0000099c       $pdata$_setmbcp_nolock     000000018002e99c     LIBCMT:mbctype.obj
 0004:000009a8       $pdata$__freetlocinfo      000000018002e9a8     LIBCMT:localref.obj
 0004:000009b4       $pdata$__updatetlocinfo    000000018002e9b4     LIBCMT:localref.obj
 0004:000009c0       $pdata$_updatetlocinfoEx_nolock 000000018002e9c0     LIBCMT:localref.obj
 0004:000009cc       $pdata$_tolower_l          000000018002e9cc     LIBCMT:tolower.obj
 0004:000009d8       $pdata$_locterm            000000018002e9d8     LIBCMT:wsetloca.obj
 0004:000009e4       $pdata$_XcptFilter         000000018002e9e4     LIBCMT:winxfltr.obj
 0004:000009f0       $pdata$_ioinit             000000018002e9f0     LIBCMT:ioinit.obj
 0004:000009fc       $pdata$_ioterm             000000018002e9fc     LIBCMT:ioinit.obj
 0004:00000a08       $pdata$_setargv            000000018002ea08     LIBCMT:stdargv.obj
 0004:00000a14       $pdata$parse_cmdline       000000018002ea14     LIBCMT:stdargv.obj
 0004:00000a20       $pdata$_setenvp            000000018002ea20     LIBCMT:stdenvp.obj
 0004:00000a2c       $pdata$__security_init_cookie 000000018002ea2c     LIBCMT:gs_support.obj
 0004:00000a38       $pdata$__crtGetEnvironmentStringsA 000000018002ea38     LIBCMT:a_env.obj
 0004:00000a44       $pdata$__DestructExceptionObject 000000018002ea44     LIBCMT:frame.obj
 0004:00000a50       $pdata$??0bad_exception@std@@QEAA@AEBV01@@Z 000000018002ea50     LIBCMT:frame.obj
 0004:00000a5c       $pdata$??_Gbad_exception@std@@UEAAPEAXI@Z 000000018002ea5c     LIBCMT:frame.obj
 0004:00000a68       $pdata$?CatchIt@@YAXPEAUEHExceptionRecord@@PEA_KPEAU_CONTEXT@@PEAU_xDISPATCHER_CONTEXT@@PEBU_s_FuncInfo@@PEBU_s_HandlerType@@PEBU_s_CatchableType@@PEBU_s_TryBlockMapEntry@@H1EE@Z 000000018002ea68     LIBCMT:frame.obj
 0004:00000a74       $pdata$?FindHandler@@YAXPEAUEHExceptionRecord@@PEA_KPEAU_CONTEXT@@PEAU_xDISPATCHER_CONTEXT@@PEBU_s_FuncInfo@@EH1@Z 000000018002ea74     LIBCMT:frame.obj
 0004:00000a80       $pdata$?FindHandlerForForeignException@@YAXPEAUEHExceptionRecord@@PEA_KPEAU_CONTEXT@@PEAU_xDISPATCHER_CONTEXT@@PEBU_s_FuncInfo@@HH1@Z 000000018002ea80     LIBCMT:frame.obj
 0004:00000a8c       $pdata$?IsInExceptionSpec@@YAEPEAUEHExceptionRecord@@PEBU_s_ESTypeList@@@Z 000000018002ea8c     LIBCMT:frame.obj
 0004:00000a98       $pdata$__BuildCatchObject  000000018002ea98     LIBCMT:frame.obj
 0004:00000aa4       $pdata$__BuildCatchObjectHelper 000000018002eaa4     LIBCMT:frame.obj
 0004:00000ab0       $pdata$__CxxCallCatchBlock 000000018002eab0     LIBCMT:frame.obj
 0004:00000abc       $pdata$__FrameUnwindFilter 000000018002eabc     LIBCMT:frame.obj
 0004:00000ac8       $pdata$__FrameUnwindToState 000000018002eac8     LIBCMT:frame.obj
 0004:00000ad4       $pdata$__InternalCxxFrameHandler 000000018002ead4     LIBCMT:frame.obj
 0004:00000ae0       $pdata$__TypeMatch         000000018002eae0     LIBCMT:frame.obj
 0004:00000aec       $pdata$?__GetCurrentState@@YAHPEA_KPEAU_xDISPATCHER_CONTEXT@@PEBU_s_FuncInfo@@@Z 000000018002eaec     LIBCMT:ehstate.obj
 0004:00000af8       $pdata$?__GetUnwindTryBlock@@YAHPEA_KPEAU_xDISPATCHER_CONTEXT@@PEBU_s_FuncInfo@@@Z 000000018002eaf8     LIBCMT:ehstate.obj
 0004:00000b04       $pdata$?__SetUnwindTryBlock@@YAXPEA_KPEAU_xDISPATCHER_CONTEXT@@PEBU_s_FuncInfo@@H@Z 000000018002eb04     LIBCMT:ehstate.obj
 0004:00000b10       $pdata$?__StateFromIp@@YAHPEBU_s_FuncInfo@@PEAU_xDISPATCHER_CONTEXT@@_J@Z 000000018002eb10     LIBCMT:ehstate.obj
 0004:00000b1c       $pdata$_cfltcvt            000000018002eb1c     LIBCMT:cvt.obj
 0004:00000b28       $pdata$_cfltcvt_l          000000018002eb28     LIBCMT:cvt.obj
 0004:00000b34       $pdata$_cftoa_l            000000018002eb34     LIBCMT:cvt.obj
 0004:00000b40       $pdata$_cftoe2_l           000000018002eb40     LIBCMT:cvt.obj
 0004:00000b4c       $pdata$_cftoe_l            000000018002eb4c     LIBCMT:cvt.obj
 0004:00000b58       $pdata$_cftof2_l           000000018002eb58     LIBCMT:cvt.obj
 0004:00000b64       $pdata$_cftof_l            000000018002eb64     LIBCMT:cvt.obj
 0004:00000b70       $pdata$_cftog_l            000000018002eb70     LIBCMT:cvt.obj
 0004:00000b7c       $pdata$_cropzeros_l        000000018002eb7c     LIBCMT:cvt.obj
 0004:00000b88       $pdata$_fassign_l          000000018002eb88     LIBCMT:cvt.obj
 0004:00000b94       $pdata$_forcdecpt_l        000000018002eb94     LIBCMT:cvt.obj
 0004:00000ba0       $pdata$strcpy_s            000000018002eba0     LIBCMT:strcpy_s.obj
 0004:00000bac       $pdata$_fileno             000000018002ebac     LIBCMT:fileno.obj
 0004:00000bb8       $pdata$_isatty             000000018002ebb8     LIBCMT:isatty.obj
 0004:00000bc4       $pdata$_lseeki64           000000018002ebc4     LIBCMT:lseeki64.obj
 0004:00000bd0       $pdata$_lseeki64_nolock    000000018002ebd0     LIBCMT:lseeki64.obj
 0004:00000bdc       $pdata$_getbuf             000000018002ebdc     LIBCMT:_getbuf.obj
 0004:00000be8       $pdata$_isleadbyte_l       000000018002ebe8     LIBCMT:_wctype.obj
 0004:00000bf4       $pdata$isleadbyte          000000018002ebf4     LIBCMT:_wctype.obj
 0004:00000c00       $pdata$_wctomb_s_l         000000018002ec00     LIBCMT:wctomb.obj
 0004:00000c0c       $pdata$wctomb_s            000000018002ec0c     LIBCMT:wctomb.obj
 0004:00000c18       $pdata$_mbtowc_l           000000018002ec18     LIBCMT:mbtowc.obj
 0004:00000c24       $pdata$_putwch_nolock      000000018002ec24     LIBCMT:putwch.obj
 0004:00000c6c       $pdata$wcsncpy_s           000000018002ec6c     LIBCMT:wcsncpy_s.obj
 0004:00000c78       $pdata$_fcloseall          000000018002ec78     LIBCMT:closeall.obj
 0004:00000c84       $pdata$_commit             000000018002ec84     LIBCMT:commit.obj
 0004:00000c90       $pdata$_freebuf            000000018002ec90     LIBCMT:_freebuf.obj
 0004:00000c9c       $pdata$_woutput_l          000000018002ec9c     LIBCMT:woutput.obj
 0004:00000ca8       $pdata$write_char          000000018002eca8     LIBCMT:woutput.obj
 0004:00000cb4       $pdata$write_multi_char    000000018002ecb4     LIBCMT:woutput.obj
 0004:00000cc0       $pdata$write_string        000000018002ecc0     LIBCMT:woutput.obj
 0004:00000ccc       $pdata$realloc             000000018002eccc     LIBCMT:realloc.obj
 0004:00000cd8       $pdata$_calloc_impl        000000018002ecd8     LIBCMT:calloc_impl.obj
 0004:00000ce4       $pdata$GetTableIndexFromLocaleName 000000018002ece4     LIBCMT:winapinls.obj
 0004:00000cf0       $pdata$__crtDownlevelLocaleNameToLCID 000000018002ecf0     LIBCMT:winapinls.obj
 0004:00000cfc       $pdata$__crtLCMapStringEx  000000018002ecfc     LIBCMT:winapinls.obj
 0004:00000d14       $pdata$?__crtLCMapStringA_stat@@YAHPEAUlocaleinfo_struct@@PEB_WKPEBDHPEADHHH@Z 000000018002ed14     LIBCMT:a_map.obj
 0004:00000d20       $pdata$__crtLCMapStringA   000000018002ed20     LIBCMT:a_map.obj
 0004:00000d2c       $pdata$?__crtGetStringTypeA_stat@@YAHPEAUlocaleinfo_struct@@KPEBDHPEAGHH@Z 000000018002ed2c     LIBCMT:a_str.obj
 0004:00000d38       $pdata$__crtGetStringTypeA 000000018002ed38     LIBCMT:a_str.obj
 0004:00000d44       $pdata$__free_lconv_mon    000000018002ed44     LIBCMT:initmon.obj
 0004:00000d50       $pdata$__free_lconv_num    000000018002ed50     LIBCMT:initnum.obj
 0004:00000d5c       $pdata$__free_lc_time      000000018002ed5c     LIBCMT:inittime.obj
 0004:00000d68       $pdata$_isctype_l          000000018002ed68     LIBCMT:isctype.obj
 0004:00000d80       $pdata$?x_ismbbtype_l@@YAHPEAUlocaleinfo_struct@@IHH@Z 000000018002ed80     LIBCMT:ismbbyte.obj
 0004:00000d98       $pdata$isdigit             000000018002ed98     LIBCMT:_ctype.obj
 0004:00000da4       $pdata$strrchr             000000018002eda4     LIBCMT:strrchr.obj
 0004:00000db0       $pdata$_fptostr            000000018002edb0     LIBCMT:_fptostr.obj
 0004:00000dbc       $pdata$__crt_atoflt_l      000000018002edbc     LIBCMT:atodbl.obj
 0004:00000dc8       $pdata$_atodbl_l           000000018002edc8     LIBCMT:atodbl.obj
 0004:00000dd4       $pdata$__dtold             000000018002edd4     LIBCMT:cfout.obj
 0004:00000de0       $pdata$_fltout2            000000018002ede0     LIBCMT:cfout.obj
 0004:00000dec       $pdata$__termconout        000000018002edec     LIBCMT:initcon.obj
 0004:00000df8       $pdata$__initconout        000000018002edf8     LIBCMT:initcon.obj
 0004:00000e04       $pdata$_fclose_nolock      000000018002ee04     LIBCMT:fclose.obj
 0004:00000e10       $pdata$fclose              000000018002ee10     LIBCMT:fclose.obj
 0004:00000e1c       $pdata$_fputwc_nolock      000000018002ee1c     LIBCMT:fputwc.obj
 0004:00000e28       $pdata$_ld12tod            000000018002ee28     LIBCMT:intrncvt.obj
 0004:00000e34       $pdata$_ld12tof            000000018002ee34     LIBCMT:intrncvt.obj
 0004:00000e40       $pdata$__strgtold12_l      000000018002ee40     LIBCMT:strgtold.obj
 0004:00000e4c       $pdata$$I10_OUTPUT         000000018002ee4c     LIBCMT:x10fout.obj
 0004:00000e58       $pdata$_close              000000018002ee58     LIBCMT:close.obj
 0004:00000e64       $pdata$_close_nolock       000000018002ee64     LIBCMT:close.obj
 0004:00000e70       $pdata$_flswbuf            000000018002ee70     LIBCMT:_flswbuf.obj
 0004:00000e7c       $pdata$__mtold12           000000018002ee7c     LIBCMT:mantold.obj
 0004:00000e88       $pdata$__delayLoadHelper2  000000018002ee88     DelayImp:delayhlp.obj
 0004:00000e94       $pdata$?catch$0@?0??BSONDeserialize@BSON@@SAXAEBV?$FunctionCallbackInfo@VValue@v8@@@Nan@@@Z@4HA 000000018002ee94     bson.obj
 0004:00000ea0       $pdata$?catch$1@?0??BSONDeserialize@BSON@@SAXAEBV?$FunctionCallbackInfo@VValue@v8@@@Nan@@@Z@4HA 000000018002eea0     bson.obj
 0004:00000eac       $pdata$?catch$0@?0??BSONSerialize@BSON@@SAXAEBV?$FunctionCallbackInfo@VValue@v8@@@Nan@@@Z@4HA 000000018002eeac     bson.obj
 0004:00000eb8       $pdata$?catch$1@?0??BSONSerialize@BSON@@SAXAEBV?$FunctionCallbackInfo@VValue@v8@@@Nan@@@Z@4HA 000000018002eeb8     bson.obj
 0004:00000ec4       $pdata$?catch$0@?0??SerializeWithBufferAndIndex@BSON@@SAXAEBV?$FunctionCallbackInfo@VValue@v8@@@Nan@@@Z@4HA 000000018002eec4     bson.obj
 0004:00000ed0       $pdata$?catch$1@?0??SerializeWithBufferAndIndex@BSON@@SAXAEBV?$FunctionCallbackInfo@VValue@v8@@@Nan@@@Z@4HA 000000018002eed0     bson.obj
 0004:00000edc       $pdata$?catch$0@?0??BSONDeserializeStream@BSON@@SAXAEBV?$FunctionCallbackInfo@VValue@v8@@@Nan@@@Z@4HA 000000018002eedc     bson.obj
 0004:00000ee8       $pdata$perror$fin$0        000000018002eee8     LIBCMT:perror.obj
 0004:00000ef4       $pdata$_onexit$fin$0       000000018002eef4     LIBCMT:onexit.obj
 0004:00000f00       $pdata$printf$fin$0        000000018002ef00     LIBCMT:printf.obj
 0004:00000f0c       $pdata$doexit$fin$0        000000018002ef0c     LIBCMT:crt0dat.obj
 0004:00000f18       $pdata$_CRT_INIT$fin$0     000000018002ef18     LIBCMT:dllcrt0.obj
 0004:00000f24       $pdata$__DllMainCRTStartup$filt$0 000000018002ef24     LIBCMT:dllcrt0.obj
 0004:00000f30       $pdata$_CallSETranslator$filt$0 000000018002ef30     LIBCMT:trnsctrl.obj
 0004:00000f3c       $pdata$__lock_fhandle$fin$0 000000018002ef3c     LIBCMT:osfinfo.obj
 0004:00000f48       $pdata$_lseeki64$fin$0     000000018002ef48     LIBCMT:write.obj
 0004:00000f48       $pdata$_write$fin$0        000000018002ef48     LIBCMT:write.obj
 0004:00000f54       $pdata$_freefls$fin$1      000000018002ef54     LIBCMT:tidtable.obj
 0004:00000f54       $pdata$_initptd$fin$1      000000018002ef54     LIBCMT:tidtable.obj
 0004:00000f60       $pdata$_initptd$fin$0      000000018002ef60     LIBCMT:tidtable.obj
 0004:00000f60       $pdata$_freefls$fin$0      000000018002ef60     LIBCMT:tidtable.obj
 0004:00000f6c       $pdata$fclose$fin$0        000000018002ef6c     LIBCMT:fflush.obj
 0004:00000f6c       $pdata$fflush$fin$0        000000018002ef6c     LIBCMT:fflush.obj
 0004:00000f78       $pdata$flsall$fin$0        000000018002ef78     LIBCMT:fflush.obj
 0004:00000f84       $pdata$flsall$fin$1        000000018002ef84     LIBCMT:fflush.obj
 0004:00000f90       $pdata$setvbuf$fin$0       000000018002ef90     LIBCMT:setvbuf.obj
 0004:00000f9c       $pdata$fwprintf$fin$0      000000018002ef9c     LIBCMT:fwprintf.obj
 0004:00000fa8       $pdata$raise$fin$0         000000018002efa8     LIBCMT:winsig.obj
 0004:00000fb4       $pdata$?fin$0@?0??_Type_info_dtor@type_info@@CAXPEAV1@@Z@4HA 000000018002efb4     LIBCMT:typname.obj
 0004:00000fc0       $pdata$_mtinitlocknum$fin$0 000000018002efc0     LIBCMT:mlock.obj
 0004:00000fcc       $pdata$_IsNonwritableInCurrentImage$filt$0 000000018002efcc     LIBCMT:pesect.obj
 0004:00000fd8       $pdata$__updatetmbcinfo$fin$0 000000018002efd8     LIBCMT:mbctype.obj
 0004:00000fd8       $pdata$_setmbcp$fin$0      000000018002efd8     LIBCMT:mbctype.obj
 0004:00000fe4       $pdata$_locterm$fin$0      000000018002efe4     LIBCMT:wsetloca.obj
 0004:00000fe4       $pdata$__updatetlocinfo$fin$0 000000018002efe4     LIBCMT:wsetloca.obj
 0004:00000ff0       $pdata$_ioinit$fin$0       000000018002eff0     LIBCMT:ioinit.obj
 0004:00000ffc       $pdata$__CxxCallCatchBlock$filt$0 000000018002effc     LIBCMT:frame.obj
 0004:00001008       $pdata$__CxxCallCatchBlock$fin$1 000000018002f008     LIBCMT:frame.obj
 0004:00001014       $pdata$__DestructExceptionObject$filt$0 000000018002f014     LIBCMT:frame.obj
 0004:00001020       $pdata$__FrameUnwindToState$filt$0 000000018002f020     LIBCMT:frame.obj
 0004:0000102c       $pdata$__FrameUnwindToState$fin$1 000000018002f02c     LIBCMT:frame.obj
 0004:00001038       $pdata$_fcloseall$fin$0    000000018002f038     LIBCMT:closeall.obj
 0004:00001044       $pdata$_close$fin$0        000000018002f044     LIBCMT:commit.obj
 0004:00001044       $pdata$_commit$fin$0       000000018002f044     LIBCMT:commit.obj
 0005:00000060       $R000000                   0000000180030060     * linker generated manifest res *

 Exports

  ordinal    name

        1    _register_bson_
